(lp0
I10100
aI10201
aI10202
aI10300
aI10400
aI10501
aI10502
aI10503
aI10600
aI10701
aI10702
aI20100
aI20200
aI20301
aI20302
aI20400
aI20500
aI20601
aI20602
aI20701
aI20702
aI20801
aI20802
aI20901
aI20902
aI30101
aI30102
aI30103
aI30104
aI30200
aI30300
aI30400
aI30500
aI30601
aI30603
aI30604
aI30701
aI30702
aI30703
aI30706
aI30800
aI30900
aI31000
aI31100
aI31200
aI31300
aI31400
aI31501
aI31502
aI31700
aI31800
aI31900
aI32100
aI40100
aI40201
aI40202
aI40300
aI40401
aI40402
aI40600
aI40700
aI40800
aI40900
aI50100
aI50200
aI50300
aI50500
aI50600
aI50700
aI50800
aI50900
aI51000
aI51100
aI51200
aI51300
aI51400
aI60100
aI60200
aI60300
aI60400
aI60500
aI60800
aI60900
aI61000
aI61100
aI61200
aI61500
aI61800
aI61901
aI61902
aI62000
aI62100
aI62200
aI62300
aI62400
aI62500
aI62600
aI62700
aI62800
aI62900
aI63000
aI63100
aI63200
aI63301
aI63302
aI63303
aI63400
aI70101
aI70102
aI70103
aI70200
aI70300
aI70400
aI70500
aI70600
aI70700
aI71000
aI71100
aI71200
aI71300
aI71400
aI71500
aI71600
aI71700
aI71800
aI80100
aI80201
aI80202
aI80300
aI80400
aI81000
aI81100
aI81201
aI81202
aI81300
aI81401
aI81402
aI81403
aI81500
aI81600
aI81700
aI81800
aI81900
aI90100
aI90200
aI90300
aI100100
aI100200
aI100300
aI100400
aI100500
aI100600
aI100700
aI110100
aI110200
aI110300
aI110400
aI110501
aI110502
aI120100
aI120200
aI120300
aI120400
aI130100
aI130200
aI130300
aI140100
aI140200
aI140301
aI140302
aI140400
aI140500
aI140601
aI140602
aI140701
aI140702
aI140800
aI150200
aI150300
aI150401
aI150402
aI150501
aI150502
aI150600
aI150700
aI150800
aI151001
aI151002
aI151100
aI151200
aI160100
aI160200
aI160300
aI160400
aI160501
aI160502
aI160601
aI160602
aI160700
aI160800
aI160900
aI161000
aI161100
aI161200
aI161300
aI170100
aI170200
aI170300
aI170400
aI170500
aI170600
aI170700
aI170800
aI170900
aI171000
aI171100
aI180100
aI190100
aI190200
aI190300
aI190401
aI190402
aI190601
aI190602
aI190701
aI190702
aI190800
aI190900
aI191000
aI191100
aI191200
aI191301
aI191302
aI200100
aI200200
aI200300
aI200401
aI200402
aI210100
aI210400
aI210501
aI210502
aI210601
aI210602
aI210700
aI210800
aI210900
aI220300
aI220400
aI220500
aI220601
aI220602
aI220701
aI220702
aI220901
aI220902
aI221000
aI221100
aI221200
aI221300
aI221400
aI221500
aI221600
aI222200
aI222500
aI222600
aI222700
aI222800
aI222900
aI230100
aI230200
aI230300
aI230400
aI230500
aI230600
aI230700
aI230800
aI230900
aI231100
aI231200
aI231500
aI240200
aI240300
aI240500
aI240600
aI240700
aI240800
aI240900
aI241000
aI241100
aI241200
aI241300
aI241400
aI241500
aI241600
aI242000
aI242100
aI242200
aI242300
aI242400
aI242500
aI242600
aI242700
aI242800
aI242900
aI243000
aI243100
aI243200
aI243300
aI243400
aI243500
aI250200
aI250300
aI250400
aI250500
aI250600
aI250700
aI250800
aI251000
aI251100
aI251200
aI251300
aI251400
aI251500
aI251600
aI251700
aI251800
aI251900
aI252000
aI252101
aI252102
aI252201
aI252202
aI260100
aI260200
aI260300
aI260400
aI260500
aI260600
aI260700
aI260800
aI260900
aI261000
aI270500
aI271200
aI271300
aI271400
aI271500
aI271800
aI280100
aI280400
aI280800
aI280900
aI281900
aI282700
aI282800
aI283100
aI283200
aI283800
aI290900
aI291200
aI291600
aI292200
aI292400
aI292500
aI300500
aI300600
aI300700
aI300800
aI300900
aI301100
aI301200
aI301600
aI301701
aI301702
aI301801
aI301802
aI301803
aI310200
aI310300
aI310400
aI310500
aI310600
aI310700
aI310800
aI310900
aI320100
aI320400
aI320600
aI330100
aI330200
aI340300
aI340400
aI340500
aI340600
aI350100
aI350400
aI351000
aI351100
aI351400
aI351500
aI360200
aI380100
aI380200
aI380500
aI380700
aI381200
aI381400
aI381500
aI381700
aI381800
aI381900
aI390100
aI390200
aI390300
aI390400
aI390500
aI390600
aI390700
aI400300
aI400400
aI400500
aI400800
aI410100
aI410200
aI410500
aI410600
aI410700
aI410800
aI410900
aI411000
aI411100
aI411200
aI420100
aI420200
aI420300
aI420400
aI420500
aI420600
aI420700
aI420800
aI421200
aI430101
aI430102
aI430200
aI430300
aI430400
aI430500
aI430600
aI430700
aI430800
aI430900
aI431200
aI431301
aI431302
aI431400
aI440101
aI440102
aI440201
aI440202
aI440300
aI440600
aI440700
aI440800
aI440900
aI450300
aI460100
aI460200
aI460301
aI460302
aI460400
aI460500
aI460600
aI460700
aI461000
aI470100
aI480100
aI480200
aI480300
aI480400
aI480500
aI490300
aI490400
aI490500
aI490600
aI490700
aI490800
aI490901
aI490902
aI491000
aI491100
aI491200
aI491300
aI491400
aI500100
aI500200
aI500300
aI510100
aI510200
aI510300
aI520100
aI520200
aI520300
aI520400
aI520500
aI520600
aI530100
aI530200
aI530300
aI530400
aI530501
aI530502
aI530503
aI530600
aI540101
aI540102
aI550100
aI550200
aI560100
aI560200
aI560300
aI560400
aI560700
aI560800
aI560900
aI561000
aI561100
aI570100
aI570200
aI570300
aI570400
aI570500
aI580100
aI580200
aI580300
aI580400
aI580501
aI580502
aI580600
aI580700
aI580800
aI590500
aI590600
aI590700
aI600400
aI600600
aI600700
aI600900
aI610300
aI610400
aI610800
aI611000
aI611100
aI611200
aI611300
aI611400
aI611500
aI611600
aI611700
aI611800
aI611900
aI612000
aI612100
aI620100
aI620200
aI620300
aI620400
aI630100
aI630200
aI630300
aI630400
aI630500
aI630800
aI630900
aI640100
aI640300
aI640400
aI640500
aI640600
aI640700
aI640800
aI650100
aI650200
aI650301
aI650302
aI650400
aI650500
aI660301
aI660302
aI660400
aI660500
aI660600
aI660700
aI660800
aI660900
aI661000
aI661100
aI670100
aI670200
aI670300
aI670400
aI670500
aI670600
aI670700
aI670800
aI670900
aI671100
aI671200
aI671300
aI671400
aI671500
aI671600
aI671800
aI671900
aI672000
aI680500
aI680600
aI680900
aI681000
aI681100
aI681200
aI681300
aI681400
aI690300
aI690400
aI690500
aI690900
aI691000
aI691100
aI691200
aI691300
aI691400
aI691500
aI700100
aI700200
aI700301
aI700302
aI700401
aI700402
aI700501
aI700502
aI710100
aI710200
aI710300
aI710400
aI710500
aI710600
aI710700
aI710800
aI710900
aI711000
aI711100
aI711200
aI711300
aI711400
aI711500
aI720100
aI720200
aI720300
aI720400
aI720500
aI720600
aI720700
aI730100
aI730201
aI730202
aI730300
aI730400
aI730500
aI730600
aI730700
aI740100
aI740200
aI740300
aI740400
aI750100
aI750200
aI750300
aI750400
aI750500
aI750600
aI760801
aI760802
aI760803
aI770602
aI770902
aI810400
aI821402
aI823304
aI830500
aI830600
aI830700
aI830800
aI830900
aI831000
aI831100
aI831200
aI831300
aI831400
aI831500
aI831600
aI831700
aI831800
aI831900
aI832000
aI832100
aI832200
aI832300
aI832400
aI832500
aI832600
aI832900
aI833000
aI833100
aI833300
aI833900
aI834000
aI834200
aI834300
aI834400
aI834500
aI834600
aI834700
aI834800
aI834900
aI835000
aI835100
aI835200
aI835500
aI835600
aI835700
aI835800
aI835900
aI836000
aI836100
aI836200
aI836300
aI836400
aI836500
aI836600
aI836700
aI836800
aI836900
aI837000
aI837100
aI837300
aI837400
aI837800
aI838000
aI838100
aI838200
aI838300
aI838600
aI838700
aI838800
aI839000
aI839100
aI839200
aI839500
aI839600
aI839700
aI839800
aI839900
aI840000
aI840100
aI840200
aI840300
aI840400
aI840700
aI840800
aI841000
aI841100
aI841200
aI841300
aI841400
aI841500
aI841600
aI841700
aI841800
aI841900
aI842000
aI842100
aI842200
aI842300
aI842400
aI842500
aI842600
aI842800
aI842900
aI843000
aI843100
aI843200
aI843300
aI843400
aI843500
aI843600
aI843700
aI843800
aI843900
aI980000
aI980100
a.(dp0
I51200
(dp1
S'Food'
p2
I1
sS'Residence'
p3
I4
sS'Travel'
p4
I13
sS'Outdoors & Recreation'
p5
I1
sS'College & Education'
p6
I1
sS'Nightlife'
p7
I5
sS'Professional'
p8
I18
sS'Shops'
p9
I13
ssI831100
(dp10
g2
I38
sg3
I7
sg4
I34
sS'Arts & Entertainment'
p11
I5
sg5
I9
sg6
I4
sg7
I13
sg8
I25
sg9
I67
ssI191200
(dp12
g2
I5
sg4
I4
sg11
I1
sg5
I1
sg8
I5
sg9
I4
ssI260100
(dp13
g2
I3
sg8
I3
sg9
I12
sg7
I1
ssI823304
(dp14
g2
I25
sg3
I2
sg4
I5
sg11
I1
sg5
I3
sg6
I1
sg7
I6
sg8
I12
sg9
I43
ssI580300
(dp15
g2
I3
sg3
I1
sg4
I1
sg11
I1
sg8
I3
sg9
I5
ssI831500
(dp16
g2
I15
sg3
I1
sg4
I9
sg11
I2
sg6
I3
sg7
I1
sg8
I11
sg9
I58
ssI421200
(dp17
g8
I1
sg9
I2
sg7
I1
ssI835600
(dp18
g2
I11
sg3
I2
sg4
I5
sg6
I1
sg7
I2
sg8
I19
sg9
I17
ssI71000
(dp19
g2
I29
sg3
I20
sg4
I9
sg11
I12
sg5
I16
sg6
I77
sg7
I29
sg8
I27
sg9
I50
ssI839700
(dp20
g2
I21
sg3
I2
sg4
I14
sg11
I13
sg5
I6
sg6
I2
sg7
I12
sg8
I29
sg9
I45
ssI430101
(dp21
g2
I9
sg3
I3
sg4
I2
sg11
I1
sg5
I2
sg7
I1
sg8
I2
sg9
I9
ssI430102
(dp22
g2
I5
sg3
I7
sg4
I6
sg11
I1
sg5
I4
sg7
I1
sg8
I4
sg9
I4
ssI843800
(dp23
g2
I4
sg4
I4
sg11
I2
sg5
I4
sg8
I10
sg9
I2
ssI242300
(dp24
g2
I24
sg3
I5
sg4
I15
sg11
I9
sg5
I8
sg7
I18
sg8
I22
sg9
I46
ssI420700
(dp25
g2
I9
sg3
I2
sg4
I2
sg6
I1
sg7
I4
sg8
I6
sg9
I17
ssI100700
(dp26
g2
I1
sg4
I1
sg11
I1
sg5
I3
sg8
I2
sg9
I4
ssI710700
(dp27
g2
I2
sg8
I7
sg9
I10
sg5
I1
sg7
I1
ssI100400
(dp28
g2
I6
sg4
I2
sg11
I1
sg5
I1
sg6
I1
sg8
I40
sg9
I5
ssI520200
(dp29
g4
I6
sg5
I1
sg6
I1
sg7
I1
sg8
I2
sg9
I1
ssI671600
(dp30
g2
I1
sg8
I3
sg9
I3
sg5
I1
sg4
I3
ssI671800
(dp31
g8
I1
sg9
I1
sg7
I1
ssI530100
(dp32
g2
I6
sg4
I2
sg11
I2
sg5
I2
sg8
I8
sg9
I3
ssI10300
(dp33
g2
I8
sg3
I14
sg4
I15
sg11
I11
sg5
I25
sg6
I3
sg7
I20
sg8
I24
sg9
I29
ssI530501
(dp34
g8
I2
sg9
I2
sg4
I2
sg7
I1
ssI530503
(dp35
g2
I2
sg4
I3
sg11
I2
sg5
I2
sg7
I1
sg8
I1
sg9
I1
ssI841800
(dp36
g2
I2
sg4
I5
sg11
I3
sg6
I2
sg7
I1
sg8
I7
sg9
I11
ssI282700
(dp37
g2
I8
sg3
I2
sg4
I8
sg11
I2
sg5
I3
sg7
I3
sg8
I8
sg9
I7
ssI190200
(dp38
g2
I9
sg4
I3
sg11
I2
sg5
I1
sg6
I1
sg8
I12
sg9
I14
ssI30800
(dp39
g2
I49
sg3
I16
sg4
I16
sg11
I12
sg5
I13
sg6
I7
sg7
I14
sg8
I32
sg9
I81
sS'Event'
p40
I1
ssI611000
(dp41
g9
I3
sg5
I1
ssI290900
(dp42
g2
I1
sg8
I2
sg5
I2
sg9
I2
ssI700501
(dp43
g2
I7
sg4
I3
sg5
I1
sg7
I1
sg8
I7
sg9
I8
ssI700502
(dp44
g2
I2
sg8
I2
sg9
I1
ssI90200
(dp45
g2
I34
sg4
I8
sg11
I4
sg5
I6
sg6
I2
sg7
I10
sg8
I14
sg9
I34
ssI390500
(dp46
g3
I1
sg4
I1
sg11
I1
sg6
I1
sg7
I1
sg8
I3
sg9
I1
ssI670400
(dp47
g2
I1
sg8
I2
sg5
I1
sg9
I1
sg4
I1
ssI252000
(dp48
g2
I7
sg4
I1
sg6
I1
sg7
I1
sg8
I4
sg9
I11
ssI221200
(dp49
g2
I5
sg3
I3
sg4
I6
sg11
I6
sg5
I6
sg6
I1
sg7
I9
sg8
I16
sg9
I12
ssI51300
(dp50
g2
I3
sg3
I4
sg4
I10
sg11
I7
sg5
I8
sg6
I1
sg7
I12
sg8
I10
sg9
I7
ssI200300
(dp51
g2
I7
sg4
I1
sg11
I1
sg7
I1
sg8
I6
sg9
I3
ssI836900
(dp52
g2
I1
sg8
I1
sg4
I2
sg9
I2
ssI260200
(dp53
g2
I3
sg8
I2
sg9
I9
sg5
I1
sg4
I3
ssI231100
(dp54
g2
I1
sg9
I1
ssI230300
(dp55
g3
I1
sg9
I5
sg5
I2
sg7
I2
ssI520300
(dp56
g2
I9
sg9
I5
sg4
I1
sg7
I3
ssI831600
(dp57
g2
I13
sg4
I7
sg11
I1
sg5
I5
sg6
I2
sg7
I8
sg8
I18
sg9
I33
ssI10600
(dp58
g2
I18
sg3
I18
sg4
I14
sg11
I20
sg5
I9
sg6
I5
sg7
I15
sg8
I25
sg9
I37
ssI221300
(dp59
g2
I37
sg3
I6
sg4
I18
sg11
I20
sg5
I6
sg6
I1
sg7
I29
sg8
I27
sg9
I45
sg40
I1
ssI839800
(dp60
g2
I23
sg3
I1
sg4
I8
sg11
I5
sg5
I3
sg7
I3
sg8
I8
sg9
I19
ssI71700
(dp61
g2
I1
sg3
I3
sg4
I2
sg11
I1
sg5
I1
sg6
I2
sg7
I5
sg8
I9
sg9
I3
ssI20602
(dp62
g2
I31
sg3
I1
sg4
I5
sg6
I1
sg8
I5
sg9
I34
ssI843900
(dp63
g2
I3
sg3
I2
sg4
I9
sg11
I1
sg5
I13
sg6
I2
sg7
I1
sg8
I8
sg9
I4
ssI30400
(dp64
g2
I24
sg4
I19
sg11
I8
sg5
I5
sg6
I1
sg7
I5
sg8
I9
sg9
I19
ssI630200
(dp65
g8
I2
sg9
I2
sg4
I2
ssI190601
(dp66
g2
I7
sg8
I3
sg4
I3
sg5
I2
sg9
I4
ssI190602
(dp67
g2
I12
sg8
I7
sg9
I12
sg4
I4
sg7
I4
ssI301200
(dp68
g2
I9
sg3
I3
sg4
I3
sg11
I1
sg6
I3
sg7
I1
sg8
I6
sg9
I11
ssI834900
(dp69
g2
I3
sg3
I1
sg7
I1
ssI251000
(dp70
g2
I1
sg3
I1
sg6
I1
sg7
I1
sg8
I4
sg9
I1
ssI100500
(dp71
g2
I12
sg4
I20
sg11
I1
sg5
I4
sg6
I3
sg8
I16
sg9
I20
ssI821402
(dp72
g2
I17
sg3
I1
sg4
I2
sg11
I1
sg5
I2
sg7
I2
sg8
I2
sg9
I23
ssI671900
(dp73
g8
I2
ssI10400
(dp74
g2
I20
sg3
I28
sg4
I22
sg11
I15
sg5
I34
sg6
I94
sg7
I11
sg8
I36
sg9
I35
ssI270500
(dp75
g2
I2
sg8
I3
sg9
I1
sg5
I1
ssI837800
(dp76
g2
I19
sg3
I2
sg4
I20
sg11
I14
sg5
I4
sg6
I2
sg7
I9
sg8
I54
sg9
I34
ssI841900
(dp77
g2
I102
sg3
I23
sg4
I136
sg11
I43
sg5
I44
sg6
I191
sg7
I29
sg8
I173
sg9
I157
ssI600400
(dp78
g2
I5
sg3
I2
sg4
I7
sg11
I2
sg5
I2
sg7
I4
sg8
I6
sg9
I16
ssI420500
(dp79
g8
I4
sg9
I1
sg6
I1
sg7
I1
sg4
I1
ssI30900
(dp80
g2
I43
sg3
I4
sg4
I26
sg11
I13
sg5
I13
sg6
I6
sg7
I21
sg8
I44
sg9
I74
sg40
I2
ssI842100
(dp81
g2
I4
sg8
I3
sg9
I2
ssI90300
(dp82
g2
I4
sg11
I1
sg5
I3
sg6
I2
sg8
I11
sg9
I7
ssI350400
(dp83
g2
I2
sg3
I1
sg4
I2
sg5
I1
sg6
I3
sg7
I2
sg8
I3
sg9
I2
ssI160800
(dp84
g2
I22
sg3
I2
sg4
I19
sg11
I20
sg5
I11
sg6
I4
sg7
I6
sg8
I22
sg9
I52
ssI252101
(dp85
g2
I7
sg3
I1
sg4
I1
sg5
I4
sg7
I1
sg8
I7
sg9
I3
ssI252102
(dp86
g2
I5
sg8
I4
sg9
I8
sg4
I1
sg3
I1
ssI461000
(dp87
g2
I6
sg3
I1
sg4
I4
sg5
I1
sg7
I1
sg8
I13
sg9
I26
ssI170700
(dp88
g2
I4
sg8
I2
sg9
I5
sg5
I1
sg7
I4
ssI260300
(dp89
g2
I1
sg3
I1
sg9
I1
sg8
I4
ssI520400
(dp90
g2
I11
sg5
I1
sg6
I1
sg7
I1
sg8
I14
sg9
I14
ssI831700
(dp91
g2
I8
sg4
I9
sg11
I1
sg5
I2
sg6
I1
sg7
I4
sg8
I26
sg9
I38
ssI221400
(dp92
g2
I30
sg3
I9
sg4
I30
sg11
I14
sg5
I11
sg6
I2
sg7
I18
sg8
I37
sg9
I62
ssI830500
(dp93
g2
I5
sg8
I2
sg5
I3
sg9
I2
sg4
I5
ssI430300
(dp94
g2
I5
sg8
I3
sg9
I8
sg5
I1
sg7
I2
ssI20701
(dp95
g2
I19
sg3
I1
sg4
I8
sg11
I1
sg5
I2
sg6
I1
sg7
I2
sg8
I20
sg9
I16
ssI20702
(dp96
g2
I18
sg3
I2
sg4
I10
sg11
I5
sg5
I3
sg6
I2
sg7
I2
sg8
I21
sg9
I25
ssI280800
(dp97
g2
I4
sg4
I2
sg11
I1
sg5
I2
sg7
I2
sg8
I2
sg9
I9
ssI430800
(dp98
g8
I2
sg4
I4
sg9
I2
ssI80100
(dp99
g2
I9
sg3
I33
sg4
I26
sg11
I10
sg5
I19
sg6
I6
sg7
I14
sg8
I24
sg9
I9
ssI200401
(dp100
g2
I2
sg8
I1
sg9
I3
sg11
I1
ssI31100
(dp101
g2
I27
sg3
I30
sg4
I17
sg11
I19
sg5
I17
sg6
I18
sg7
I26
sg8
I39
sg9
I46
ssI190701
(dp102
g2
I6
sg8
I2
sg4
I3
sg6
I1
sg9
I1
ssI190702
(dp103
g2
I8
sg3
I1
sg4
I1
sg11
I1
sg6
I1
sg8
I1
sg9
I6
ssI681000
(dp104
g2
I1
sg8
I5
sg9
I3
ssI710900
(dp105
g2
I4
sg8
I1
sg9
I6
sg7
I1
sg4
I3
ssI100600
(dp106
g2
I18
sg4
I21
sg11
I1
sg5
I3
sg6
I2
sg7
I13
sg8
I31
sg9
I39
ssI460500
(dp107
g2
I4
sg4
I3
sg5
I1
sg7
I1
sg8
I8
sg9
I10
ssI672000
(dp108
g2
I1
sg8
I1
sg9
I3
sg7
I3
ssI420100
(dp109
g2
I1
sg3
I2
sg4
I4
sg11
I1
sg5
I4
sg6
I2
sg8
I1
sg9
I1
ssI10501
(dp110
g2
I13
sg3
I19
sg4
I18
sg11
I5
sg5
I7
sg7
I3
sg8
I9
sg9
I9
ssI10502
(dp111
g2
I11
sg3
I24
sg4
I8
sg11
I3
sg5
I3
sg6
I4
sg7
I5
sg8
I9
sg9
I9
ssI10503
(dp112
g2
I13
sg3
I19
sg4
I19
sg11
I4
sg5
I6
sg6
I6
sg7
I13
sg8
I16
sg9
I28
ssI838700
(dp113
g2
I7
sg8
I3
sg9
I3
ssI842000
(dp114
g2
I17
sg3
I4
sg4
I20
sg11
I2
sg5
I7
sg6
I72
sg7
I5
sg8
I30
sg9
I11
ssI292500
(dp115
g2
I1
sg4
I2
sg11
I1
sg7
I1
sg8
I3
sg9
I4
ssI710500
(dp116
g2
I1
sg8
I7
sg9
I9
sg4
I1
ssI31000
(dp117
g2
I29
sg3
I13
sg4
I23
sg11
I6
sg5
I4
sg6
I4
sg7
I15
sg8
I38
sg9
I53
ssI730500
(dp118
g2
I3
sg4
I3
sg5
I2
sg6
I1
sg7
I2
sg8
I7
sg9
I5
ssI200100
(dp119
g2
I3
sg4
I2
sg11
I1
sg5
I3
sg6
I1
sg8
I3
sg9
I11
ssI380200
(dp120
g2
I2
sg4
I1
sg9
I3
ssI740400
(dp121
g2
I10
sg3
I7
sg4
I2
sg11
I2
sg5
I5
sg6
I4
sg7
I4
sg8
I14
sg9
I16
ssI222600
(dp122
g2
I6
sg3
I1
sg4
I1
sg7
I4
sg8
I6
sg9
I10
ssI20400
(dp123
g2
I6
sg3
I2
sg4
I5
sg5
I3
sg7
I2
sg8
I6
sg9
I13
ssI252201
(dp124
g2
I6
sg11
I2
sg5
I2
sg7
I1
sg8
I6
sg9
I3
ssI252202
(dp125
g2
I9
sg8
I8
sg4
I3
sg9
I6
sg7
I1
ssI260400
(dp126
g2
I1
sg8
I4
sg9
I1
sg7
I1
ssI120200
(dp127
g2
I23
sg4
I12
sg11
I2
sg5
I5
sg6
I2
sg7
I4
sg8
I54
sg9
I49
ssI520500
(dp128
g5
I1
sg9
I1
ssI831800
(dp129
g2
I33
sg3
I7
sg4
I19
sg11
I17
sg5
I12
sg6
I127
sg7
I5
sg8
I32
sg9
I27
ssI835900
(dp130
g2
I4
sg3
I5
sg4
I10
sg11
I1
sg5
I3
sg6
I2
sg7
I3
sg8
I8
sg9
I9
ssI840000
(dp131
g2
I4
sg3
I3
sg4
I5
sg11
I1
sg5
I3
sg6
I5
sg7
I1
sg8
I8
sg9
I7
ssI20801
(dp132
g2
I24
sg3
I1
sg4
I10
sg11
I2
sg5
I2
sg6
I2
sg7
I6
sg8
I19
sg9
I21
ssI20802
(dp133
g2
I36
sg3
I5
sg4
I19
sg11
I2
sg5
I6
sg6
I3
sg7
I8
sg8
I23
sg9
I51
ssI280900
(dp134
g2
I3
sg8
I2
sg9
I8
sg4
I1
ssI710200
(dp135
g9
I1
sg7
I1
ssI80201
(dp136
g2
I10
sg3
I16
sg4
I14
sg11
I1
sg5
I8
sg6
I5
sg7
I3
sg8
I25
sg9
I18
ssI80202
(dp137
g2
I23
sg3
I33
sg4
I27
sg11
I12
sg5
I14
sg6
I5
sg7
I22
sg8
I40
sg9
I27
ssI340300
(dp138
g2
I3
sg8
I3
sg4
I2
sg6
I1
sg9
I3
ssI170500
(dp139
g2
I6
sg3
I1
sg4
I1
sg5
I3
sg7
I1
sg9
I3
ssI190800
(dp140
g2
I15
sg4
I2
sg11
I3
sg5
I3
sg6
I1
sg7
I2
sg8
I11
sg9
I19
ssI390200
(dp141
g2
I2
sg3
I1
sg4
I5
sg11
I4
sg5
I3
sg6
I2
sg8
I6
sg9
I6
ssI640300
(dp142
g2
I2
sg4
I2
sg11
I1
sg5
I4
sg7
I6
sg8
I4
sg9
I6
ssI711000
(dp143
g2
I3
sg4
I1
sg5
I1
sg7
I2
sg8
I3
sg9
I4
ssI510300
(dp144
g2
I16
sg8
I10
sg9
I37
sg4
I3
ssI640400
(dp145
g2
I4
sg8
I6
sg9
I4
sg5
I1
sg7
I1
ssI160100
(dp146
g2
I8
sg3
I5
sg4
I20
sg11
I7
sg5
I7
sg6
I4
sg7
I3
sg8
I12
sg9
I11
ssI570400
(dp147
g2
I10
sg3
I1
sg4
I8
sg11
I2
sg6
I1
sg7
I2
sg8
I9
sg9
I9
ssI61800
(dp148
g2
I13
sg3
I16
sg4
I13
sg11
I2
sg5
I3
sg6
I2
sg7
I11
sg8
I12
sg9
I18
ssI61500
(dp149
g2
I11
sg3
I14
sg4
I11
sg11
I4
sg5
I10
sg6
I5
sg7
I22
sg8
I15
sg9
I25
ssI230500
(dp150
g2
I13
sg5
I2
sg6
I1
sg7
I1
sg8
I6
sg9
I11
ssI833900
(dp151
g2
I12
sg8
I4
sg9
I13
sg6
I1
sg5
I1
ssI838000
(dp152
g2
I4
sg3
I3
sg4
I11
sg11
I3
sg5
I2
sg6
I6
sg7
I2
sg8
I14
sg9
I2
ssI250600
(dp153
g2
I11
sg8
I4
sg9
I12
sg4
I5
sg3
I1
ssI330100
(dp154
g2
I118
sg3
I105
sg4
I121
sg11
I184
sg5
I164
sg6
I38
sg7
I68
sg8
I272
sg9
I174
sg40
I2
ssI301801
(dp155
g2
I3
sg8
I3
sg9
I5
sg5
I2
sg4
I2
ssI440700
(dp156
g2
I7
sg8
I3
sg9
I5
sg4
I2
sg7
I1
ssI490901
(dp157
g2
I2
sg3
I1
sg4
I3
sg11
I1
sg5
I1
sg6
I2
sg8
I3
sg9
I3
ssI291200
(dp158
g2
I1
sg8
I7
sg9
I1
sg4
I1
ssI500100
(dp159
g4
I1
sg11
I1
sg5
I2
sg6
I3
sg8
I2
sg9
I2
ssI490902
(dp160
g2
I4
sg8
I11
sg9
I9
sg4
I1
ssI271500
(dp161
g2
I1
sg8
I2
sg5
I2
sg9
I1
sg7
I1
ssI260500
(dp162
g2
I3
sg8
I4
sg9
I4
ssI520600
(dp163
g8
I3
sg5
I2
ssI831900
(dp164
g2
I21
sg3
I11
sg4
I23
sg11
I7
sg5
I15
sg6
I2
sg7
I28
sg8
I41
sg9
I62
ssI170400
(dp165
g2
I14
sg4
I2
sg11
I2
sg5
I1
sg6
I1
sg7
I4
sg8
I11
sg9
I30
ssI430500
(dp166
g2
I5
sg8
I5
sg4
I4
sg5
I2
sg9
I11
ssI20901
(dp167
g2
I17
sg3
I3
sg4
I7
sg11
I2
sg7
I1
sg8
I4
sg9
I25
ssI20902
(dp168
g2
I7
sg3
I1
sg4
I1
sg7
I1
sg8
I8
sg9
I8
ssI671400
(dp169
g2
I1
sg9
I3
sg4
I1
ssI80300
(dp170
g2
I67
sg3
I39
sg4
I29
sg11
I19
sg5
I25
sg6
I17
sg7
I40
sg8
I56
sg9
I94
sg40
I1
ssI20200
(dp171
g2
I12
sg3
I1
sg4
I6
sg11
I1
sg5
I3
sg6
I7
sg7
I4
sg8
I16
sg9
I37
ssI340400
(dp172
g2
I15
sg3
I6
sg4
I6
sg11
I1
sg6
I1
sg7
I3
sg8
I12
sg9
I16
ssI611400
(dp173
g2
I2
sg8
I3
ssI400800
(dp174
g3
I1
sg4
I2
sg9
I1
sg8
I1
ssI242100
(dp175
g2
I38
sg3
I14
sg4
I23
sg11
I17
sg5
I19
sg6
I5
sg7
I19
sg8
I27
sg9
I51
ssI250300
(dp176
g2
I1
sg8
I1
sg9
I8
sg4
I2
sg11
I1
ssI221600
(dp177
g2
I28
sg3
I6
sg4
I22
sg11
I10
sg5
I13
sg6
I3
sg7
I21
sg8
I26
sg9
I33
ssI681300
(dp178
g2
I2
sg5
I1
sg9
I3
sg4
I1
sg11
I1
ssI160200
(dp179
g2
I12
sg3
I3
sg4
I18
sg11
I6
sg5
I3
sg6
I1
sg7
I6
sg8
I17
sg9
I23
ssI231500
(dp180
g2
I2
sg8
I3
sg4
I1
sg9
I3
ssI420300
(dp181
g2
I5
sg3
I1
sg4
I2
sg11
I2
sg6
I22
sg8
I2
sg9
I1
ssI61901
(dp182
g2
I22
sg3
I35
sg4
I41
sg11
I8
sg5
I11
sg6
I1
sg7
I17
sg8
I20
sg9
I27
ssI61902
(dp183
g2
I3
sg3
I38
sg4
I104
sg11
I4
sg5
I37
sg6
I5
sg7
I11
sg8
I24
sg9
I13
ssI834000
(dp184
g2
I8
sg3
I1
sg4
I23
sg5
I2
sg6
I1
sg8
I4
sg9
I4
ssI420600
(dp185
g2
I1
sg8
I1
sg9
I4
ssI170600
(dp186
g8
I1
sg9
I5
sg5
I2
sg4
I1
ssI70101
(dp187
g2
I23
sg3
I29
sg4
I54
sg11
I7
sg5
I43
sg6
I5
sg7
I16
sg8
I34
sg9
I26
ssI70102
(dp188
g2
I32
sg3
I35
sg4
I11
sg11
I5
sg5
I19
sg6
I5
sg7
I15
sg8
I57
sg9
I64
ssI70103
(dp189
g2
I25
sg3
I18
sg4
I6
sg11
I2
sg5
I8
sg6
I5
sg7
I11
sg8
I12
sg9
I22
ssI330200
(dp190
g2
I17
sg3
I13
sg4
I22
sg11
I6
sg5
I13
sg6
I8
sg7
I5
sg8
I32
sg9
I28
ssI251300
(dp191
g2
I7
sg3
I1
sg4
I13
sg7
I2
sg8
I4
sg9
I5
ssI170300
(dp192
g2
I20
sg3
I2
sg4
I6
sg5
I1
sg6
I2
sg7
I1
sg8
I10
sg9
I24
ssI283100
(dp193
g2
I35
sg3
I11
sg4
I6
sg11
I5
sg5
I6
sg6
I1
sg7
I13
sg8
I14
sg9
I14
ssI31200
(dp194
g2
I74
sg3
I18
sg4
I29
sg11
I13
sg5
I16
sg6
I3
sg7
I21
sg8
I43
sg9
I80
ssI500200
(dp195
g2
I1
sg8
I9
sg9
I1
sg7
I1
ssI450300
(dp196
g2
I13
sg4
I7
sg5
I2
sg6
I1
sg8
I13
sg9
I22
ssI301100
(dp197
g2
I5
sg8
I3
sg9
I1
ssI610800
(dp198
g2
I2
sg9
I3
sg7
I2
sg4
I1
ssI460200
(dp199
g2
I1
sg8
I2
sg5
I1
sg4
I2
sg7
I1
ssI410100
(dp200
g2
I7
sg3
I5
sg4
I11
sg11
I2
sg5
I5
sg6
I2
sg7
I2
sg8
I17
sg9
I21
ssI260600
(dp201
g11
I1
sg8
I3
sg9
I5
sg7
I2
sg4
I2
ssI470100
(dp202
g8
I12
sg9
I2
sg6
I2
sg7
I1
ssI832000
(dp203
g2
I32
sg3
I35
sg4
I21
sg11
I20
sg5
I12
sg6
I2
sg7
I58
sg8
I18
sg9
I32
sg40
I1
ssI300800
(dp204
g2
I6
sg8
I5
sg9
I13
sg5
I1
sg7
I1
ssI580100
(dp205
g2
I5
sg3
I1
sg4
I3
sg5
I1
sg7
I1
sg8
I7
sg9
I5
ssI430600
(dp206
g2
I13
sg3
I2
sg4
I2
sg11
I1
sg5
I1
sg8
I9
sg9
I24
ssI310700
(dp207
g2
I26
sg3
I4
sg4
I3
sg11
I2
sg5
I3
sg6
I2
sg7
I6
sg8
I13
sg9
I19
ssI161300
(dp208
g2
I20
sg3
I4
sg4
I8
sg11
I6
sg5
I2
sg6
I3
sg7
I12
sg8
I11
sg9
I40
ssI80400
(dp209
g2
I17
sg3
I10
sg4
I9
sg11
I6
sg5
I10
sg6
I1
sg7
I9
sg8
I32
sg9
I30
ssI320600
(dp210
g2
I70
sg3
I41
sg4
I85
sg11
I67
sg5
I64
sg6
I128
sg7
I37
sg8
I144
sg9
I74
ssI750100
(dp211
g2
I6
sg8
I4
sg9
I7
sg6
I1
sg4
I1
ssI730201
(dp212
g2
I3
sg4
I2
sg5
I1
sg7
I5
sg8
I5
sg9
I14
ssI600600
(dp213
g2
I3
sg3
I3
sg4
I3
sg11
I2
sg5
I1
sg7
I4
sg8
I5
sg9
I11
ssI740100
(dp214
g2
I14
sg4
I2
sg5
I3
sg6
I2
sg7
I5
sg8
I17
sg9
I31
ssI250400
(dp215
g2
I5
sg3
I1
sg4
I7
sg11
I1
sg5
I2
sg6
I3
sg8
I8
sg9
I19
ssI836700
(dp216
g2
I7
sg4
I13
sg11
I2
sg5
I3
sg6
I2
sg7
I5
sg8
I14
sg9
I6
ssI770602
(dp217
g2
I23
sg3
I1
sg4
I7
sg11
I14
sg5
I5
sg6
I2
sg7
I1
sg8
I42
sg9
I24
ssI160300
(dp218
g2
I10
sg3
I7
sg4
I13
sg11
I1
sg5
I3
sg7
I10
sg8
I17
sg9
I21
ssI62000
(dp219
g2
I52
sg3
I57
sg4
I34
sg11
I18
sg5
I27
sg6
I10
sg7
I52
sg8
I41
sg9
I73
ssI680500
(dp220
g8
I1
sg5
I1
ssI491300
(dp221
g8
I1
ssI70200
(dp222
g2
I40
sg3
I41
sg4
I26
sg11
I12
sg5
I15
sg6
I8
sg7
I24
sg8
I57
sg9
I67
ssI62900
(dp223
g2
I30
sg3
I34
sg4
I25
sg11
I12
sg5
I21
sg6
I12
sg7
I41
sg8
I51
sg9
I31
ssI842300
(dp224
g2
I35
sg3
I14
sg4
I108
sg11
I57
sg5
I43
sg6
I10
sg7
I46
sg8
I155
sg9
I101
ssI283200
(dp225
g2
I21
sg3
I4
sg4
I5
sg11
I3
sg5
I2
sg6
I2
sg7
I8
sg8
I8
sg9
I11
ssI610400
(dp226
g2
I6
sg3
I1
sg4
I1
sg5
I2
sg7
I1
sg8
I5
sg9
I17
ssI31300
(dp227
g2
I13
sg3
I34
sg4
I35
sg11
I9
sg5
I31
sg6
I5
sg7
I15
sg8
I26
sg9
I13
ssI240200
(dp228
g2
I9
sg3
I6
sg4
I6
sg11
I2
sg5
I6
sg6
I1
sg7
I7
sg8
I12
sg9
I19
ssI671500
(dp229
g2
I7
sg8
I1
sg9
I14
sg4
I2
sg7
I1
ssI500300
(dp230
g2
I5
sg4
I4
sg11
I5
sg5
I3
sg8
I17
sg9
I3
ssI271800
(dp231
g8
I2
sg9
I4
ssI838600
(dp232
g2
I1
sg8
I1
sg5
I1
sg7
I1
ssI410200
(dp233
g2
I1
sg3
I5
sg4
I3
sg11
I1
sg6
I3
sg7
I1
sg8
I2
sg9
I1
ssI691300
(dp234
g2
I13
sg4
I2
sg11
I3
sg6
I1
sg7
I4
sg8
I7
sg9
I17
ssI260700
(dp235
g2
I5
sg8
I2
sg4
I3
sg9
I6
ssI843600
(dp236
g2
I15
sg3
I2
sg4
I6
sg11
I4
sg5
I2
sg7
I3
sg8
I15
sg9
I24
ssI832100
(dp237
g2
I32
sg3
I26
sg4
I30
sg11
I11
sg5
I12
sg6
I2
sg7
I25
sg8
I32
sg9
I47
ssI836200
(dp238
g2
I42
sg3
I1
sg4
I17
sg11
I15
sg5
I15
sg6
I116
sg7
I5
sg8
I58
sg9
I14
ssI71100
(dp239
g2
I35
sg3
I24
sg4
I42
sg11
I14
sg5
I22
sg6
I28
sg7
I36
sg8
I34
sg9
I97
ssI190900
(dp240
g2
I10
sg3
I1
sg4
I2
sg5
I1
sg8
I1
sg9
I11
ssI840300
(dp241
g2
I13
sg4
I4
sg11
I1
sg5
I1
sg7
I4
sg8
I4
sg9
I16
ssI490600
(dp242
g2
I3
sg8
I1
sg4
I1
sg9
I1
ssI340600
(dp243
g2
I4
sg3
I1
sg4
I3
sg11
I32
sg5
I13
sg6
I1
sg7
I11
sg8
I6
sg9
I5
ssI600700
(dp244
g2
I7
sg3
I4
sg4
I7
sg11
I5
sg5
I1
sg6
I2
sg7
I3
sg8
I2
sg9
I7
ssI250500
(dp245
g2
I19
sg3
I1
sg4
I11
sg11
I2
sg5
I2
sg7
I1
sg8
I21
sg9
I40
ssI301701
(dp246
g2
I7
sg8
I5
sg9
I15
sg4
I3
sg11
I5
ssI301702
(dp247
g2
I2
sg8
I3
sg9
I3
ssI160400
(dp248
g2
I18
sg3
I8
sg4
I12
sg11
I4
sg5
I1
sg6
I1
sg7
I11
sg8
I22
sg9
I50
ssI837400
(dp249
g3
I3
sg11
I1
sg5
I4
sg7
I4
sg8
I7
sg9
I1
sg40
I1
ssI62100
(dp250
g2
I85
sg3
I46
sg4
I44
sg11
I25
sg5
I22
sg6
I8
sg7
I90
sg8
I48
sg9
I94
sg40
I1
ssI834200
(dp251
g2
I7
sg8
I6
sg9
I20
sg4
I7
ssI381400
(dp252
g2
I3
sg3
I5
sg4
I3
sg11
I2
sg5
I3
sg6
I1
sg7
I1
sg8
I9
sg9
I17
ssI70300
(dp253
g2
I70
sg3
I39
sg4
I41
sg11
I29
sg5
I21
sg6
I18
sg7
I55
sg8
I57
sg9
I81
ssI140500
(dp254
g2
I23
sg3
I3
sg4
I8
sg11
I1
sg6
I1
sg7
I1
sg8
I4
sg9
I27
ssI842400
(dp255
g2
I31
sg3
I1
sg4
I16
sg11
I4
sg5
I6
sg6
I1
sg7
I1
sg8
I16
sg9
I69
ssI242800
(dp256
g2
I7
sg4
I15
sg11
I3
sg5
I3
sg6
I3
sg7
I4
sg8
I6
sg9
I18
ssI590500
(dp257
g2
I9
sg4
I11
sg11
I1
sg5
I2
sg8
I4
sg9
I12
ssI31400
(dp258
g2
I14
sg3
I35
sg4
I58
sg11
I10
sg5
I105
sg6
I12
sg7
I14
sg8
I38
sg9
I21
ssI150300
(dp259
g2
I17
sg3
I1
sg4
I10
sg11
I6
sg5
I11
sg6
I2
sg7
I6
sg8
I30
sg9
I29
ssI836000
(dp260
g2
I1
sg3
I1
sg4
I1
sg5
I1
sg8
I10
sg9
I7
ssI240300
(dp261
g2
I28
sg3
I6
sg4
I7
sg11
I5
sg5
I8
sg6
I3
sg7
I17
sg8
I12
sg9
I57
ssI150200
(dp262
g2
I44
sg4
I22
sg11
I17
sg5
I12
sg6
I2
sg7
I14
sg8
I49
sg9
I81
ssI170100
(dp263
g2
I7
sg3
I2
sg4
I4
sg11
I3
sg5
I1
sg6
I28
sg8
I10
sg9
I23
ssI440900
(dp264
g8
I5
sg9
I1
sg5
I1
sg11
I1
ssI260800
(dp265
g2
I5
sg8
I3
sg9
I8
sg4
I1
ssI640800
(dp266
g2
I7
sg9
I4
sg4
I2
sg7
I1
ssI60100
(dp267
g2
I17
sg3
I8
sg4
I19
sg11
I3
sg5
I4
sg6
I4
sg7
I8
sg8
I13
sg9
I15
ssI832200
(dp268
g2
I25
sg3
I8
sg4
I29
sg11
I17
sg5
I3
sg6
I3
sg7
I28
sg8
I19
sg9
I57
ssI836300
(dp269
g2
I1
sg3
I4
sg4
I2
sg11
I1
sg5
I3
sg6
I1
sg7
I1
sg8
I3
sg9
I3
ssI10701
(dp270
g2
I3
sg3
I2
sg4
I7
sg11
I2
sg5
I1
sg8
I3
sg9
I2
ssI840400
(dp271
g2
I23
sg4
I6
sg5
I4
sg6
I2
sg7
I5
sg8
I18
sg9
I50
ssI71800
(dp272
g2
I18
sg3
I7
sg4
I9
sg11
I15
sg5
I8
sg6
I2
sg7
I5
sg8
I11
sg9
I16
ssI690900
(dp273
g2
I13
sg8
I7
sg9
I9
sg7
I3
sg4
I1
ssI10702
(dp274
g2
I49
sg3
I8
sg4
I18
sg11
I5
sg5
I3
sg6
I2
sg7
I6
sg8
I24
sg9
I36
ssI20601
(dp275
g2
I20
sg3
I1
sg4
I1
sg11
I1
sg5
I1
sg6
I1
sg8
I12
sg9
I17
ssI30500
(dp276
g2
I20
sg3
I31
sg4
I36
sg11
I18
sg5
I26
sg6
I4
sg7
I14
sg8
I30
sg9
I38
ssI711100
(dp277
g2
I5
sg4
I1
sg11
I2
sg5
I4
sg6
I1
sg7
I2
sg8
I5
sg9
I8
ssI750300
(dp278
g2
I10
sg4
I1
sg11
I2
sg6
I1
sg7
I5
sg8
I6
sg9
I25
ssI242400
(dp279
g2
I21
sg3
I11
sg4
I13
sg11
I14
sg5
I7
sg6
I2
sg7
I18
sg8
I23
sg9
I20
ssI711400
(dp280
g2
I8
sg4
I6
sg5
I1
sg7
I1
sg8
I4
sg9
I11
ssI690300
(dp281
g2
I2
sg3
I2
sg4
I5
sg5
I2
sg8
I1
sg9
I4
ssI301802
(dp282
g2
I17
sg8
I10
sg9
I19
sg7
I2
sg4
I2
ssI301803
(dp283
g2
I2
sg4
I1
sg6
I1
sg7
I1
sg8
I4
sg9
I1
ssI570100
(dp284
g2
I8
sg4
I6
sg11
I1
sg5
I1
sg7
I1
sg8
I7
sg9
I18
ssI160501
(dp285
g2
I15
sg3
I2
sg4
I8
sg11
I3
sg7
I1
sg8
I7
sg9
I15
sg40
I1
ssI160502
(dp286
g2
I16
sg3
I2
sg4
I4
sg11
I2
sg5
I1
sg6
I1
sg7
I8
sg8
I9
sg9
I23
ssI62200
(dp287
g2
I26
sg3
I18
sg4
I16
sg11
I17
sg5
I17
sg6
I3
sg7
I49
sg8
I19
sg9
I30
ssI838100
(dp288
g2
I27
sg3
I6
sg4
I28
sg11
I65
sg5
I25
sg6
I34
sg7
I25
sg8
I114
sg9
I13
ssI834300
(dp289
g2
I17
sg8
I9
sg9
I20
sg6
I1
sg4
I3
ssI660500
(dp290
g2
I6
sg3
I1
sg4
I1
sg9
I1
sg8
I3
ssI70400
(dp291
g2
I10
sg3
I14
sg4
I15
sg11
I10
sg5
I13
sg6
I14
sg7
I22
sg8
I27
sg9
I38
ssI300700
(dp292
g2
I7
sg4
I3
sg11
I1
sg5
I1
sg6
I1
sg8
I7
sg9
I8
ssI600900
(dp293
g2
I11
sg3
I3
sg4
I3
sg11
I13
sg5
I4
sg6
I1
sg7
I2
sg8
I15
sg9
I10
ssI842500
(dp294
g2
I3
sg3
I1
sg4
I5
sg7
I1
sg8
I4
sg9
I4
ssI590600
(dp295
g2
I2
sg3
I1
sg4
I1
sg11
I2
sg5
I1
sg6
I1
sg7
I1
sg8
I1
sg9
I3
ssI31501
(dp296
g2
I8
sg3
I15
sg4
I7
sg11
I4
sg5
I6
sg6
I3
sg7
I8
sg8
I19
sg9
I7
ssI31502
(dp297
g2
I12
sg3
I26
sg4
I19
sg11
I8
sg5
I4
sg6
I4
sg7
I7
sg8
I17
sg9
I14
ssI842200
(dp298
g2
I84
sg3
I13
sg4
I79
sg11
I40
sg5
I58
sg6
I49
sg7
I67
sg8
I261
sg9
I160
ssI351000
(dp299
g2
I6
sg3
I8
sg4
I7
sg11
I1
sg5
I13
sg6
I5
sg7
I1
sg8
I6
sg9
I21
ssI160900
(dp300
g2
I12
sg3
I5
sg4
I27
sg11
I2
sg5
I6
sg6
I1
sg7
I6
sg8
I15
sg9
I30
ssI611100
(dp301
g2
I1
sg4
I1
sg9
I1
ssI380500
(dp302
g5
I1
sg11
I1
ssI836400
(dp303
g3
I6
sg4
I4
sg11
I5
sg5
I18
sg6
I1
sg8
I7
sg9
I6
ssI670500
(dp304
g5
I2
sg9
I1
ssI60200
(dp305
g2
I11
sg3
I3
sg4
I13
sg11
I25
sg5
I7
sg6
I8
sg7
I6
sg8
I53
sg9
I13
sg40
I1
ssI832300
(dp306
g2
I28
sg3
I8
sg4
I67
sg11
I21
sg5
I28
sg6
I13
sg7
I21
sg8
I65
sg9
I69
ssI170800
(dp307
g2
I8
sg3
I1
sg11
I1
sg5
I2
sg7
I1
sg8
I6
sg9
I10
ssI62600
(dp308
g2
I14
sg3
I4
sg4
I19
sg11
I7
sg5
I7
sg7
I8
sg8
I29
sg9
I33
ssI430900
(dp309
g2
I2
sg4
I2
sg5
I2
sg6
I1
sg8
I2
sg9
I3
ssI691000
(dp310
g2
I17
sg3
I1
sg4
I5
sg11
I2
sg5
I1
sg6
I1
sg8
I11
sg9
I15
ssI251100
(dp311
g8
I3
sg9
I3
sg6
I1
ssI490300
(dp312
g2
I2
sg4
I3
sg9
I2
sg7
I1
ssI750400
(dp313
g2
I7
sg3
I1
sg4
I2
sg11
I1
sg5
I4
sg6
I1
sg7
I4
sg8
I11
sg9
I13
ssI671200
(dp314
g2
I1
sg8
I3
sg9
I5
sg6
I1
sg7
I1
ssI242500
(dp315
g2
I12
sg3
I2
sg4
I13
sg11
I3
sg5
I1
sg6
I3
sg7
I19
sg8
I9
sg9
I25
ssI191301
(dp316
g2
I11
sg4
I2
sg11
I2
sg7
I1
sg8
I4
sg9
I5
ssI191302
(dp317
g2
I6
sg4
I1
sg11
I1
sg7
I1
sg8
I4
sg9
I3
ssI681100
(dp318
g2
I3
sg8
I4
sg4
I2
sg5
I1
sg7
I2
ssI250700
(dp319
g2
I10
sg3
I1
sg4
I2
sg11
I1
sg5
I6
sg7
I1
sg8
I6
sg9
I21
ssI660301
(dp320
g2
I2
sg8
I2
sg9
I2
ssI660302
(dp321
g2
I10
sg8
I2
sg9
I7
sg11
I2
ssI230200
(dp322
g2
I3
sg4
I1
sg11
I6
sg5
I1
sg8
I11
sg9
I4
ssI561100
(dp323
g2
I1
sg8
I1
sg5
I1
sg9
I3
ssI250200
(dp324
g2
I5
sg8
I4
sg9
I4
sg4
I3
ssI770902
(dp325
g2
I18
sg4
I4
sg11
I2
sg5
I2
sg6
I2
sg7
I3
sg8
I11
sg9
I25
ssI570200
(dp326
g2
I11
sg4
I2
sg5
I1
sg6
I2
sg8
I13
sg9
I13
ssI160601
(dp327
g2
I14
sg3
I4
sg4
I7
sg11
I2
sg5
I7
sg6
I1
sg7
I7
sg8
I13
sg9
I25
ssI160602
(dp328
g2
I18
sg3
I6
sg4
I6
sg11
I2
sg5
I4
sg7
I11
sg8
I12
sg9
I17
ssI62300
(dp329
g2
I11
sg3
I8
sg4
I8
sg11
I3
sg5
I7
sg6
I1
sg7
I11
sg8
I32
sg9
I18
ssI510200
(dp330
g2
I6
sg8
I2
sg9
I6
sg7
I2
sg11
I1
ssI271200
(dp331
g2
I3
sg4
I1
sg5
I2
sg7
I2
sg8
I3
sg9
I2
ssI710800
(dp332
g2
I7
sg4
I1
sg5
I1
sg7
I2
sg8
I4
sg9
I6
ssI480100
(dp333
g2
I12
sg4
I2
sg5
I1
sg6
I1
sg7
I2
sg8
I4
sg9
I11
ssI740200
(dp334
g2
I5
sg3
I1
sg4
I6
sg11
I1
sg5
I4
sg6
I8
sg7
I3
sg8
I12
sg9
I12
ssI590700
(dp335
g2
I5
sg8
I5
sg9
I4
sg6
I1
ssI730600
(dp336
g2
I5
sg8
I10
sg4
I7
sg6
I1
sg9
I7
ssI240500
(dp337
g2
I24
sg3
I11
sg4
I29
sg11
I7
sg5
I9
sg6
I8
sg7
I14
sg8
I29
sg9
I38
ssI510100
(dp338
g2
I2
sg4
I3
sg5
I2
sg7
I2
sg8
I1
sg9
I1
ssI351100
(dp339
g2
I3
sg11
I1
sg6
I1
sg7
I1
sg8
I9
sg9
I6
ssI611200
(dp340
g2
I5
sg8
I2
sg9
I6
ssI150401
(dp341
g2
I19
sg3
I3
sg4
I4
sg5
I1
sg7
I4
sg8
I10
sg9
I16
ssI150402
(dp342
g2
I18
sg3
I2
sg4
I5
sg11
I7
sg5
I3
sg7
I2
sg8
I31
sg9
I24
ssI410500
(dp343
g3
I5
sg5
I3
sg6
I3
sg7
I3
sg8
I4
sg9
I2
ssI261000
(dp344
g2
I4
sg4
I1
sg5
I1
sg7
I2
sg8
I3
sg9
I2
ssI837100
(dp345
g2
I2
sg3
I1
sg4
I4
sg11
I6
sg7
I3
sg8
I11
sg9
I9
ssI491200
(dp346
g2
I4
sg8
I1
sg9
I5
sg4
I2
ssI60300
(dp347
g2
I12
sg3
I10
sg4
I15
sg11
I13
sg5
I12
sg6
I4
sg7
I17
sg8
I53
sg9
I26
ssI62800
(dp348
g2
I34
sg3
I18
sg4
I11
sg11
I23
sg5
I16
sg6
I4
sg7
I32
sg8
I41
sg9
I46
sg40
I1
ssI320400
(dp349
g2
I187
sg3
I31
sg4
I147
sg11
I202
sg5
I100
sg6
I278
sg7
I47
sg8
I443
sg9
I251
sg40
I1
ssI283800
(dp350
g2
I1
sg3
I4
sg4
I4
sg11
I2
sg5
I3
sg6
I4
sg7
I3
sg8
I12
ssI170900
(dp351
g2
I5
sg4
I4
sg11
I2
sg7
I2
sg8
I3
sg9
I6
ssI580501
(dp352
g2
I9
sg3
I3
sg4
I3
sg11
I1
sg5
I1
sg6
I3
sg8
I8
sg9
I11
ssI580502
(dp353
g2
I16
sg4
I5
sg5
I2
sg6
I3
sg8
I16
sg9
I24
ssI140100
(dp354
g2
I13
sg4
I5
sg11
I4
sg5
I5
sg6
I7
sg7
I2
sg8
I4
sg9
I9
ssI691100
(dp355
g2
I3
sg3
I2
sg4
I5
sg6
I1
sg7
I1
sg8
I3
sg9
I5
ssI490400
(dp356
g8
I1
sg4
I1
ssI835700
(dp357
g7
I1
ssI750500
(dp358
g2
I20
sg3
I2
sg4
I8
sg11
I4
sg5
I4
sg6
I2
sg7
I5
sg8
I11
sg9
I38
ssI251400
(dp359
g2
I8
sg3
I1
sg4
I3
sg5
I3
sg6
I1
sg8
I5
sg9
I6
ssI242600
(dp360
g2
I18
sg3
I6
sg4
I14
sg11
I16
sg5
I9
sg6
I6
sg7
I13
sg8
I22
sg9
I31
ssI390300
(dp361
g2
I6
sg3
I4
sg4
I1
sg6
I1
sg7
I1
sg8
I8
sg9
I10
ssI400300
(dp362
g2
I5
sg3
I1
sg4
I8
sg11
I4
sg5
I8
sg6
I5
sg7
I2
sg8
I6
sg9
I9
ssI250800
(dp363
g2
I6
sg4
I4
sg5
I2
sg6
I1
sg7
I1
sg8
I7
sg9
I22
ssI50100
(dp364
g2
I17
sg3
I8
sg4
I18
sg11
I15
sg5
I13
sg6
I9
sg7
I19
sg8
I55
sg9
I38
ssI310200
(dp365
g2
I7
sg3
I6
sg4
I7
sg11
I34
sg5
I6
sg6
I4
sg7
I16
sg8
I22
sg9
I29
ssI230900
(dp366
g2
I17
sg4
I7
sg11
I1
sg5
I2
sg7
I2
sg8
I5
sg9
I21
ssI160700
(dp367
g2
I27
sg3
I7
sg4
I12
sg11
I6
sg5
I9
sg6
I3
sg7
I11
sg8
I26
sg9
I31
ssI831200
(dp368
g2
I6
sg4
I1
sg5
I1
sg6
I1
sg7
I3
sg8
I6
sg9
I11
ssI62400
(dp369
g2
I3
sg3
I7
sg4
I14
sg11
I3
sg5
I8
sg7
I11
sg8
I24
sg9
I23
ssI240800
(dp370
g2
I7
sg3
I3
sg4
I3
sg11
I3
sg5
I2
sg7
I2
sg8
I5
sg9
I5
ssI680900
(dp371
g2
I7
sg3
I2
sg4
I6
sg11
I2
sg5
I3
sg6
I9
sg8
I10
sg9
I6
ssI70600
(dp372
g2
I11
sg3
I13
sg4
I19
sg11
I4
sg5
I19
sg6
I7
sg7
I17
sg8
I19
sg9
I33
ssI839500
(dp373
g2
I6
sg3
I1
sg4
I2
sg11
I1
sg5
I2
sg6
I1
sg7
I1
sg8
I2
sg9
I7
ssI381900
(dp374
g2
I1
sg3
I1
sg4
I1
sg5
I1
sg8
I5
sg9
I1
ssI670200
(dp375
g8
I1
sg9
I2
sg7
I2
sg4
I3
ssI670600
(dp376
g8
I1
sg9
I1
ssI31700
(dp377
g2
I28
sg3
I37
sg4
I18
sg11
I23
sg5
I20
sg6
I6
sg7
I19
sg8
I31
sg9
I43
ssI240600
(dp378
g2
I4
sg3
I2
sg4
I6
sg11
I2
sg5
I3
sg6
I2
sg7
I7
sg8
I10
sg9
I13
ssI661100
(dp379
g2
I1
sg8
I3
sg6
I1
ssI760801
(dp380
g2
I13
sg3
I6
sg4
I29
sg11
I5
sg5
I9
sg6
I15
sg7
I11
sg8
I134
sg9
I19
ssI760802
(dp381
g2
I3
sg8
I4
sg4
I5
sg9
I15
sg5
I6
ssI760803
(dp382
g2
I2
sg3
I1
sg4
I1
sg7
I2
sg8
I1
sg9
I5
ssI611300
(dp383
g2
I9
sg8
I2
sg9
I4
sg7
I1
sg4
I1
ssI150501
(dp384
g2
I1
sg3
I1
sg4
I2
sg11
I1
sg5
I2
sg7
I1
sg8
I4
sg9
I1
ssI150502
(dp385
g2
I11
sg3
I1
sg4
I2
sg11
I2
sg6
I1
sg7
I3
sg8
I10
sg9
I19
ssI410600
(dp386
g2
I6
sg3
I7
sg4
I10
sg11
I3
sg5
I5
sg6
I10
sg7
I8
sg8
I9
sg9
I10
ssI670700
(dp387
g2
I3
sg8
I3
sg9
I6
sg6
I1
ssI60400
(dp388
g2
I30
sg3
I12
sg4
I22
sg11
I13
sg5
I12
sg6
I4
sg7
I15
sg8
I23
sg9
I40
ssI530600
(dp389
g2
I1
sg8
I1
sg4
I3
sg5
I1
ssI81800
(dp390
g2
I179
sg3
I73
sg4
I111
sg11
I120
sg5
I115
sg6
I70
sg7
I111
sg8
I887
sg9
I299
sg40
I2
ssI832500
(dp391
g2
I57
sg3
I18
sg4
I40
sg11
I11
sg5
I17
sg6
I13
sg7
I30
sg8
I75
sg9
I122
ssI171000
(dp392
g2
I18
sg3
I2
sg4
I3
sg11
I3
sg5
I2
sg6
I1
sg7
I1
sg8
I11
sg9
I25
ssI222200
(dp393
g2
I16
sg3
I8
sg4
I22
sg11
I10
sg5
I9
sg6
I1
sg7
I14
sg8
I13
sg9
I26
ssI840700
(dp394
g2
I18
sg4
I6
sg11
I1
sg5
I4
sg6
I1
sg7
I1
sg8
I12
sg9
I15
ssI230400
(dp395
g2
I9
sg8
I2
sg5
I1
sg9
I3
sg4
I1
ssI243200
(dp396
g2
I27
sg3
I1
sg4
I11
sg11
I12
sg5
I3
sg6
I2
sg7
I13
sg8
I28
sg9
I35
ssI490500
(dp397
g2
I5
sg4
I6
sg5
I3
sg6
I5
sg7
I1
sg8
I6
sg9
I3
sg40
I1
ssI841500
(dp398
g4
I2
sg11
I1
sg5
I2
sg6
I1
sg8
I1
sg9
I1
ssI750600
(dp399
g2
I9
sg8
I7
sg5
I2
sg9
I6
sg4
I1
ssI150700
(dp400
g2
I5
sg3
I2
sg4
I5
sg11
I2
sg5
I3
sg6
I2
sg7
I3
sg8
I6
sg9
I3
ssI242700
(dp401
g2
I5
sg4
I4
sg11
I4
sg5
I1
sg6
I1
sg7
I3
sg8
I3
sg9
I8
ssI140301
(dp402
g2
I14
sg3
I2
sg4
I5
sg7
I5
sg8
I3
sg9
I16
ssI140302
(dp403
g2
I1
sg3
I2
sg5
I1
sg9
I1
ssI400400
(dp404
g2
I2
sg3
I1
sg4
I4
sg11
I2
sg5
I1
sg7
I3
sg8
I2
sg9
I3
ssI480200
(dp405
g2
I12
sg8
I1
sg9
I12
sg11
I2
ssI50200
(dp406
g2
I41
sg3
I13
sg4
I16
sg11
I15
sg5
I10
sg6
I4
sg7
I28
sg8
I60
sg9
I76
ssI836100
(dp407
g2
I3
sg4
I5
sg11
I1
sg5
I3
sg6
I1
sg8
I11
sg9
I3
ssI310300
(dp408
g2
I11
sg3
I4
sg4
I10
sg11
I38
sg5
I9
sg6
I5
sg7
I2
sg8
I28
sg9
I64
ssI980000
(dp409
g2
I199
sg3
I2
sg4
I3571
sg11
I19
sg5
I18
sg6
I12
sg7
I108
sg8
I126
sg9
I110
sg40
I1
ssI282800
(dp410
g2
I18
sg3
I3
sg4
I5
sg11
I3
sg5
I2
sg6
I2
sg7
I6
sg8
I8
sg9
I10
ssI62500
(dp411
g2
I31
sg3
I11
sg4
I23
sg11
I16
sg5
I10
sg6
I5
sg7
I20
sg8
I43
sg9
I49
ssI834600
(dp412
g2
I2
sg3
I1
sg4
I13
sg5
I3
sg6
I1
sg7
I2
sg8
I12
sg9
I3
ssI241500
(dp413
g2
I63
sg3
I17
sg4
I27
sg11
I41
sg5
I14
sg6
I7
sg7
I52
sg8
I53
sg9
I133
ssI70700
(dp414
g2
I27
sg3
I14
sg4
I23
sg11
I4
sg5
I9
sg6
I6
sg7
I13
sg8
I40
sg9
I71
ssI842800
(dp415
g2
I12
sg8
I13
sg9
I23
sg4
I4
sg40
I1
ssI840200
(dp416
g2
I18
sg3
I1
sg4
I11
sg11
I1
sg5
I3
sg6
I1
sg7
I1
sg8
I18
sg9
I22
ssI71300
(dp417
g2
I11
sg3
I8
sg4
I10
sg11
I4
sg5
I7
sg6
I1
sg7
I14
sg8
I10
sg9
I22
ssI130100
(dp418
g2
I31
sg4
I10
sg11
I3
sg5
I5
sg6
I5
sg7
I4
sg8
I44
sg9
I40
ssI31800
(dp419
g2
I15
sg3
I6
sg4
I11
sg11
I7
sg5
I9
sg6
I5
sg7
I3
sg8
I27
sg9
I21
ssI670900
(dp420
g2
I2
sg8
I1
sg9
I1
sg7
I1
ssI240700
(dp421
g2
I2
sg3
I4
sg4
I2
sg11
I2
sg5
I2
sg6
I1
sg7
I6
sg8
I10
sg9
I8
ssI650301
(dp422
g2
I15
sg4
I6
sg5
I2
sg7
I2
sg8
I13
sg9
I26
ssI650302
(dp423
g2
I7
sg4
I1
sg5
I1
sg7
I1
sg8
I8
sg9
I4
ssI834400
(dp424
g2
I2
sg8
I3
sg4
I1
sg5
I1
ssI150600
(dp425
g2
I10
sg4
I7
sg11
I3
sg5
I2
sg7
I2
sg8
I20
sg9
I12
ssI410700
(dp426
g2
I24
sg3
I5
sg4
I4
sg11
I4
sg5
I3
sg6
I3
sg8
I8
sg9
I31
ssI560400
(dp427
g2
I3
sg9
I6
sg5
I1
sg4
I6
sg7
I1
ssI670800
(dp428
g2
I1
sg8
I1
sg9
I3
sg4
I2
ssI60500
(dp429
g2
I7
sg3
I7
sg4
I16
sg11
I10
sg5
I6
sg6
I1
sg7
I10
sg8
I8
sg9
I11
ssI832600
(dp430
g2
I47
sg3
I19
sg4
I36
sg11
I20
sg5
I29
sg6
I14
sg7
I34
sg8
I73
sg9
I165
ssI70500
(dp431
g2
I11
sg3
I14
sg4
I11
sg11
I7
sg5
I8
sg6
I3
sg7
I7
sg8
I21
sg9
I18
ssI730202
(dp432
g8
I7
sg9
I5
sg4
I2
ssI171100
(dp433
g2
I7
sg4
I1
sg5
I1
sg7
I2
sg8
I5
sg9
I7
ssI431200
(dp434
g2
I3
sg8
I6
sg4
I3
sg9
I4
ssI720400
(dp435
g2
I5
sg8
I8
sg9
I13
sg4
I1
sg7
I4
ssI640100
(dp436
g2
I8
sg4
I38
sg5
I1
sg6
I1
sg8
I1
sg9
I2
ssI691200
(dp437
g2
I5
sg4
I3
sg11
I1
sg7
I2
sg8
I10
sg9
I5
ssI81000
(dp438
g2
I35
sg3
I44
sg4
I62
sg11
I18
sg5
I24
sg6
I54
sg7
I26
sg8
I84
sg9
I64
ssI140400
(dp439
g2
I27
sg3
I1
sg4
I13
sg11
I1
sg5
I3
sg6
I2
sg7
I7
sg8
I17
sg9
I35
ssI561000
(dp440
g2
I25
sg4
I2
sg5
I3
sg7
I5
sg8
I15
sg9
I15
ssI400500
(dp441
g2
I2
sg3
I1
sg9
I1
sg4
I2
sg8
I4
ssI660600
(dp442
g2
I7
sg8
I2
sg9
I8
sg4
I2
sg11
I1
ssI340500
(dp443
g2
I11
sg3
I4
sg4
I9
sg11
I3
sg5
I6
sg6
I5
sg7
I10
sg8
I10
sg9
I10
ssI50300
(dp444
g2
I12
sg4
I4
sg11
I2
sg5
I3
sg6
I1
sg7
I5
sg8
I19
sg9
I13
ssI310400
(dp445
g2
I4
sg3
I1
sg4
I4
sg11
I2
sg5
I1
sg7
I1
sg8
I2
sg9
I10
ssI580800
(dp446
g2
I1
sg9
I3
sg7
I1
ssI980100
(dp447
g2
I33
sg4
I953
sg11
I5
sg5
I3
sg6
I2
sg7
I19
sg8
I36
sg9
I40
ssI830600
(dp448
g2
I24
sg3
I5
sg4
I15
sg11
I6
sg5
I3
sg6
I4
sg7
I10
sg8
I21
sg9
I23
ssI220300
(dp449
g2
I11
sg3
I10
sg4
I15
sg11
I6
sg5
I4
sg6
I2
sg7
I14
sg8
I15
sg9
I17
ssI480400
(dp450
g2
I2
sg8
I15
sg9
I7
sg5
I2
sg4
I2
ssI242200
(dp451
g2
I32
sg3
I8
sg4
I17
sg11
I14
sg5
I16
sg6
I1
sg7
I23
sg8
I38
sg9
I50
ssI842900
(dp452
g2
I19
sg3
I2
sg4
I15
sg11
I4
sg5
I2
sg6
I7
sg7
I4
sg8
I29
sg9
I33
sg40
I1
ssI301600
(dp453
g2
I6
sg4
I1
sg5
I1
sg6
I1
sg8
I4
sg9
I8
ssI130200
(dp454
g2
I9
sg4
I7
sg11
I3
sg5
I4
sg7
I1
sg8
I18
sg9
I26
ssI31900
(dp455
g2
I12
sg3
I9
sg4
I15
sg11
I6
sg5
I8
sg6
I1
sg7
I9
sg8
I19
sg9
I43
ssI650400
(dp456
g2
I12
sg8
I4
sg4
I1
sg9
I9
ssI210800
(dp457
g2
I6
sg3
I1
sg4
I5
sg11
I1
sg7
I6
sg8
I7
sg9
I13
ssI40100
(dp458
g2
I4
sg4
I10
sg11
I8
sg5
I9
sg7
I6
sg8
I17
sg9
I20
ssI351400
(dp459
g2
I4
sg4
I2
sg11
I4
sg5
I2
sg6
I2
sg8
I9
sg9
I17
ssI630300
(dp460
g2
I6
sg8
I9
sg9
I15
sg4
I4
sg7
I1
ssI560300
(dp461
g2
I3
sg8
I3
sg4
I4
sg9
I8
sg7
I1
ssI410800
(dp462
g2
I37
sg3
I6
sg4
I13
sg11
I8
sg5
I5
sg6
I3
sg7
I2
sg8
I50
sg9
I87
ssI691400
(dp463
g2
I17
sg3
I1
sg4
I3
sg11
I2
sg6
I2
sg7
I9
sg8
I14
sg9
I20
ssI210100
(dp464
g2
I29
sg3
I4
sg4
I18
sg11
I9
sg5
I10
sg6
I4
sg7
I7
sg8
I30
sg9
I53
ssI650100
(dp465
g2
I14
sg4
I3
sg6
I1
sg7
I1
sg8
I7
sg9
I8
ssI730300
(dp466
g2
I2
sg8
I1
sg9
I7
sg4
I1
sg11
I1
ssI836800
(dp467
g2
I1
sg4
I4
sg11
I3
sg5
I4
sg7
I1
sg8
I6
sg9
I2
ssI71200
(dp468
g2
I38
sg3
I17
sg4
I42
sg11
I10
sg5
I20
sg6
I9
sg7
I34
sg8
I49
sg9
I53
ssI840800
(dp469
g2
I9
sg4
I1
sg11
I1
sg5
I1
sg8
I2
sg9
I7
ssI380100
(dp470
g2
I3
sg4
I1
sg11
I2
sg5
I2
sg6
I2
sg7
I2
sg8
I1
sg9
I2
ssI431301
(dp471
g2
I5
sg8
I2
sg4
I2
sg6
I1
sg9
I6
ssI431302
(dp472
g2
I6
sg3
I1
sg4
I2
sg11
I2
sg7
I1
sg8
I7
sg9
I5
ssI230600
(dp473
g2
I10
sg4
I9
sg11
I1
sg7
I3
sg8
I6
sg9
I19
ssI490700
(dp474
g8
I1
sg9
I1
sg7
I1
ssI81100
(dp475
g2
I22
sg3
I23
sg4
I23
sg11
I1
sg5
I16
sg6
I8
sg7
I27
sg8
I43
sg9
I60
ssI381800
(dp476
g2
I5
sg3
I2
sg4
I4
sg6
I2
sg7
I6
sg8
I7
sg9
I11
ssI550100
(dp477
g2
I11
sg3
I1
sg4
I2
sg11
I1
sg5
I4
sg6
I2
sg7
I4
sg8
I13
sg9
I12
ssI560200
(dp478
g2
I1
sg4
I3
sg5
I1
sg9
I2
ssI843300
(dp479
g2
I2
sg4
I1
sg11
I1
sg6
I1
sg8
I14
sg9
I4
ssI660700
(dp480
g2
I1
sg3
I1
sg9
I7
sg7
I3
sg8
I1
ssI222700
(dp481
g2
I9
sg3
I3
sg4
I4
sg11
I1
sg7
I2
sg8
I3
sg9
I4
ssI20500
(dp482
g2
I24
sg3
I2
sg4
I7
sg11
I4
sg5
I8
sg7
I3
sg8
I6
sg9
I19
ssI51400
(dp483
g2
I4
sg3
I3
sg4
I12
sg11
I7
sg5
I21
sg6
I3
sg7
I9
sg8
I16
sg9
I19
ssI310500
(dp484
g2
I12
sg4
I2
sg11
I6
sg5
I4
sg6
I1
sg7
I6
sg8
I8
sg9
I12
sg40
I1
ssI630800
(dp485
g2
I12
sg8
I5
sg9
I10
sg5
I2
sg4
I2
ssI161000
(dp486
g2
I13
sg3
I2
sg4
I14
sg11
I3
sg5
I2
sg6
I2
sg7
I5
sg8
I9
sg9
I13
ssI830700
(dp487
g2
I57
sg3
I24
sg4
I46
sg11
I11
sg5
I24
sg6
I17
sg7
I16
sg8
I92
sg9
I85
ssI220400
(dp488
g2
I12
sg3
I4
sg4
I15
sg11
I7
sg5
I1
sg6
I2
sg7
I10
sg8
I14
sg9
I24
ssI480500
(dp489
g2
I4
sg4
I5
sg5
I1
sg6
I1
sg8
I4
sg9
I3
ssI843000
(dp490
g2
I11
sg4
I3
sg11
I2
sg5
I1
sg8
I16
sg9
I11
ssI242900
(dp491
g2
I13
sg3
I1
sg4
I13
sg11
I10
sg5
I5
sg6
I7
sg7
I10
sg8
I15
sg9
I23
ssI130300
(dp492
g2
I18
sg3
I1
sg4
I6
sg11
I2
sg6
I1
sg8
I7
sg9
I8
ssI390400
(dp493
g2
I1
sg3
I2
sg4
I3
sg7
I1
sg8
I4
sg9
I9
ssI650500
(dp494
g2
I30
sg3
I1
sg4
I14
sg11
I3
sg5
I2
sg6
I8
sg7
I4
sg8
I5
sg9
I82
ssI40201
(dp495
g2
I49
sg3
I6
sg4
I13
sg11
I11
sg5
I13
sg6
I5
sg7
I26
sg8
I53
sg9
I49
ssI40202
(dp496
g2
I21
sg3
I6
sg4
I13
sg11
I3
sg5
I3
sg6
I1
sg7
I5
sg8
I19
sg9
I49
ssI351500
(dp497
g2
I2
sg3
I1
sg9
I2
sg8
I1
ssI150800
(dp498
g2
I9
sg3
I1
sg4
I9
sg11
I2
sg5
I3
sg6
I1
sg7
I5
sg8
I18
sg9
I18
ssI842600
(dp499
g2
I19
sg3
I1
sg4
I10
sg11
I3
sg5
I9
sg6
I1
sg7
I4
sg8
I22
sg9
I25
ssI410900
(dp500
g2
I13
sg3
I7
sg4
I7
sg11
I1
sg5
I6
sg6
I5
sg7
I4
sg8
I22
sg9
I24
ssI730400
(dp501
g2
I8
sg4
I4
sg11
I1
sg5
I1
sg6
I1
sg8
I9
sg9
I7
ssI420400
(dp502
g2
I3
sg4
I2
sg11
I3
sg5
I2
sg6
I7
sg8
I4
sg9
I6
ssI570500
(dp503
g2
I2
sg4
I5
sg5
I1
sg7
I1
sg8
I2
sg9
I6
ssI222500
(dp504
g2
I6
sg3
I1
sg4
I2
sg7
I2
sg8
I3
sg9
I4
ssI841000
(dp505
g2
I23
sg3
I6
sg4
I37
sg11
I27
sg5
I6
sg6
I8
sg7
I18
sg8
I67
sg9
I31
ssI839900
(dp506
g2
I12
sg3
I3
sg4
I8
sg11
I10
sg5
I3
sg6
I2
sg7
I9
sg8
I21
sg9
I35
ssI281900
(dp507
g2
I147
sg3
I38
sg4
I316
sg11
I39
sg5
I41
sg6
I41
sg7
I43
sg8
I427
sg9
I115
sg40
I2
ssI490800
(dp508
g2
I11
sg8
I2
sg9
I17
sg7
I3
sg4
I5
ssI81201
(dp509
g2
I98
sg3
I40
sg4
I52
sg11
I25
sg5
I34
sg6
I60
sg7
I38
sg8
I149
sg9
I314
sg40
I1
ssI81202
(dp510
g2
I34
sg3
I32
sg4
I48
sg11
I10
sg5
I27
sg6
I6
sg7
I16
sg8
I38
sg9
I35
ssI30601
(dp511
g2
I7
sg3
I17
sg4
I11
sg11
I4
sg5
I13
sg6
I6
sg7
I11
sg8
I10
sg9
I7
ssI243000
(dp512
g2
I13
sg3
I1
sg4
I12
sg11
I9
sg5
I2
sg6
I1
sg7
I8
sg8
I16
sg9
I26
ssI140601
(dp513
g2
I11
sg4
I2
sg11
I1
sg5
I1
sg7
I1
sg8
I4
sg9
I24
ssI140602
(dp514
g2
I16
sg11
I2
sg5
I2
sg7
I3
sg8
I5
sg9
I7
ssI660800
(dp515
g2
I4
sg8
I2
sg9
I4
sg4
I3
ssI690400
(dp516
g2
I6
sg8
I3
sg9
I11
sg4
I2
ssI630900
(dp517
g2
I5
sg4
I2
sg11
I1
sg5
I1
sg6
I1
sg8
I3
sg9
I4
ssI50500
(dp518
g2
I8
sg3
I5
sg4
I25
sg11
I9
sg5
I3
sg6
I2
sg7
I13
sg8
I26
sg9
I24
ssI310600
(dp519
g2
I64
sg3
I12
sg4
I19
sg11
I28
sg5
I12
sg6
I4
sg7
I14
sg8
I38
sg9
I43
ssI161100
(dp520
g2
I9
sg3
I4
sg4
I3
sg11
I1
sg5
I5
sg6
I3
sg7
I3
sg8
I9
sg9
I17
ssI140200
(dp521
g2
I31
sg3
I5
sg4
I4
sg11
I2
sg5
I3
sg6
I20
sg7
I4
sg8
I21
sg9
I25
ssI830800
(dp522
g2
I38
sg3
I18
sg4
I21
sg11
I10
sg5
I12
sg6
I9
sg7
I14
sg8
I57
sg9
I44
sg40
I1
ssI838200
(dp523
g2
I33
sg3
I1
sg4
I18
sg11
I2
sg5
I7
sg6
I46
sg7
I2
sg8
I115
sg9
I14
ssI220500
(dp524
g2
I35
sg3
I10
sg4
I18
sg11
I15
sg5
I10
sg6
I2
sg7
I26
sg8
I32
sg9
I39
ssI292400
(dp525
g2
I3
sg8
I7
sg4
I1
sg9
I2
ssI839000
(dp526
g2
I41
sg3
I54
sg4
I44
sg11
I31
sg5
I56
sg6
I50
sg7
I30
sg8
I102
sg9
I103
ssI720100
(dp527
g2
I8
sg4
I4
sg5
I3
sg6
I1
sg8
I14
sg9
I26
ssI580700
(dp528
g2
I2
sg8
I2
sg9
I3
sg7
I2
sg11
I1
ssI843100
(dp529
g2
I1
sg8
I1
sg9
I2
sg5
I2
sg4
I4
ssI832400
(dp530
g2
I10
sg3
I4
sg4
I11
sg11
I1
sg5
I2
sg6
I2
sg7
I2
sg8
I8
sg9
I16
ssI32100
(dp531
g2
I18
sg3
I76
sg4
I80
sg11
I14
sg5
I29
sg6
I13
sg7
I42
sg8
I66
sg9
I53
ssI200200
(dp532
g2
I2
sg4
I3
sg11
I3
sg5
I1
sg6
I1
sg8
I8
sg9
I17
ssI241000
(dp533
g2
I6
sg4
I3
sg11
I3
sg5
I1
sg7
I5
sg8
I10
sg9
I10
ssI381500
(dp534
g2
I7
sg3
I1
sg4
I1
sg11
I2
sg5
I1
sg7
I2
sg8
I3
sg9
I12
ssI40300
(dp535
g2
I4
sg4
I10
sg11
I2
sg5
I8
sg6
I2
sg7
I1
sg8
I27
sg9
I1
ssI611700
(dp536
g2
I1
ssI411000
(dp537
g2
I9
sg3
I11
sg4
I34
sg11
I53
sg5
I24
sg6
I7
sg7
I5
sg8
I21
sg9
I10
ssI836500
(dp538
g3
I1
sg4
I1
sg11
I1
sg8
I4
ssI834500
(dp539
g2
I1
sg8
I1
sg4
I1
ssI671100
(dp540
g8
I1
sg9
I2
sg4
I1
ssI151100
(dp541
g2
I13
sg4
I4
sg11
I1
sg5
I3
sg6
I1
sg7
I4
sg8
I18
sg9
I27
ssI60800
(dp542
g2
I9
sg3
I45
sg4
I44
sg11
I12
sg5
I28
sg6
I8
sg7
I23
sg8
I22
sg9
I22
ssI420200
(dp543
g2
I1
sg3
I2
sg4
I4
sg11
I1
sg5
I5
sg6
I6
sg7
I1
sg8
I6
sg9
I3
ssI832900
(dp544
g2
I6
sg3
I10
sg4
I6
sg11
I2
sg5
I4
sg6
I15
sg7
I13
sg8
I17
sg9
I6
ssI837000
(dp545
g2
I1
sg3
I1
sg4
I4
sg11
I1
sg7
I1
sg8
I5
sg9
I1
ssI62700
(dp546
g2
I34
sg3
I17
sg4
I27
sg11
I34
sg5
I14
sg6
I8
sg7
I23
sg8
I61
sg9
I85
sg40
I1
ssI841100
(dp547
g2
I146
sg3
I2
sg4
I29
sg11
I9
sg5
I15
sg6
I3
sg7
I10
sg8
I60
sg9
I111
ssI230800
(dp548
g8
I3
sg9
I3
ssI81300
(dp549
g2
I57
sg3
I27
sg4
I45
sg11
I38
sg5
I34
sg6
I22
sg7
I24
sg8
I119
sg9
I84
ssI30101
(dp550
g2
I12
sg3
I16
sg4
I14
sg11
I5
sg5
I12
sg6
I3
sg7
I8
sg8
I18
sg9
I24
ssI30102
(dp551
g2
I15
sg3
I13
sg4
I12
sg5
I4
sg6
I4
sg7
I4
sg8
I18
sg9
I23
ssI30103
(dp552
g2
I10
sg3
I15
sg4
I10
sg11
I4
sg5
I8
sg6
I12
sg7
I8
sg8
I6
sg9
I20
sg40
I1
ssI30104
(dp553
g2
I3
sg3
I7
sg4
I6
sg11
I2
sg5
I4
sg6
I38
sg7
I3
sg8
I13
sg9
I7
ssI671300
(dp554
g8
I2
sg5
I2
sg9
I3
sg4
I1
ssI243100
(dp555
g2
I16
sg3
I5
sg4
I11
sg11
I25
sg5
I11
sg6
I2
sg7
I9
sg8
I30
sg9
I38
ssI140701
(dp556
g2
I41
sg3
I5
sg4
I12
sg11
I3
sg6
I2
sg7
I3
sg8
I11
sg9
I31
ssI140702
(dp557
g2
I22
sg3
I5
sg4
I7
sg6
I1
sg7
I1
sg8
I11
sg9
I24
ssI810400
(dp558
g2
I16
sg4
I19
sg11
I1
sg5
I3
sg7
I4
sg8
I30
sg9
I22
ssI834800
(dp559
g2
I3
sg4
I1
sg5
I2
sg6
I1
sg8
I4
sg9
I2
ssI660900
(dp560
g2
I4
sg4
I2
sg11
I1
sg5
I3
sg6
I1
sg8
I7
sg9
I6
ssI230100
(dp561
g3
I1
sg11
I3
sg5
I2
sg6
I1
sg7
I2
sg8
I2
sg9
I3
ssI50600
(dp562
g2
I28
sg3
I12
sg4
I24
sg11
I15
sg5
I13
sg6
I7
sg7
I18
sg8
I37
sg9
I54
ssI51100
(dp563
g2
I22
sg3
I5
sg4
I8
sg11
I6
sg5
I7
sg6
I1
sg7
I8
sg8
I15
sg9
I41
ssI720300
(dp564
g2
I20
sg4
I1
sg11
I1
sg5
I1
sg7
I3
sg8
I21
sg9
I27
ssI670300
(dp565
g2
I3
sg3
I1
sg9
I3
sg4
I1
ssI161200
(dp566
g2
I2
sg5
I1
sg9
I3
sg7
I2
ssI830900
(dp567
g2
I43
sg3
I7
sg4
I57
sg11
I14
sg5
I27
sg6
I8
sg7
I20
sg8
I46
sg9
I117
ssI835000
(dp568
g2
I12
sg3
I1
sg4
I6
sg5
I2
sg7
I1
sg8
I8
sg9
I34
ssI220601
(dp569
g2
I15
sg3
I3
sg4
I4
sg11
I7
sg5
I6
sg7
I7
sg8
I17
sg9
I12
sg40
I1
ssI220602
(dp570
g2
I24
sg3
I12
sg4
I24
sg11
I16
sg5
I8
sg6
I4
sg7
I13
sg8
I35
sg9
I50
ssI839100
(dp571
g2
I761
sg3
I62
sg4
I485
sg11
I218
sg5
I174
sg6
I241
sg7
I163
sg8
I3101
sg9
I1076
sg40
I4
ssI843200
(dp572
g2
I36
sg3
I3
sg4
I27
sg11
I22
sg5
I9
sg6
I3
sg7
I8
sg8
I51
sg9
I61
ssI540101
(dp573
g8
I2
sg5
I3
ssI540102
(dp574
g2
I1
sg3
I1
sg5
I2
sg4
I1
sg8
I5
ssI390600
(dp575
g2
I2
sg3
I3
sg4
I6
sg5
I3
sg6
I1
sg7
I1
sg8
I4
sg9
I1
ssI730700
(dp576
g2
I5
sg4
I2
sg11
I1
sg5
I1
sg8
I2
sg9
I4
ssI241100
(dp577
g2
I21
sg3
I11
sg4
I14
sg11
I10
sg5
I11
sg6
I2
sg7
I6
sg8
I22
sg9
I38
ssI40401
(dp578
g2
I11
sg3
I5
sg4
I7
sg11
I2
sg5
I2
sg6
I1
sg7
I8
sg8
I18
sg9
I26
ssI40402
(dp579
g2
I21
sg3
I14
sg4
I16
sg11
I7
sg5
I14
sg6
I1
sg7
I12
sg8
I21
sg9
I42
ssI300500
(dp580
g2
I10
sg8
I3
sg9
I13
sg4
I2
sg11
I1
ssI271400
(dp581
g2
I3
sg4
I1
sg11
I1
sg5
I1
sg7
I1
sg8
I4
sg9
I1
ssI611800
(dp582
g2
I1
sg9
I1
ssI151001
(dp583
g2
I1
sg8
I1
sg9
I2
sg6
I1
sg7
I2
ssI151002
(dp584
g2
I7
sg3
I1
sg4
I1
sg7
I1
sg8
I8
sg9
I15
ssI411100
(dp585
g2
I8
sg3
I1
sg4
I6
sg11
I1
sg5
I3
sg6
I6
sg8
I6
sg9
I14
ssI210400
(dp586
g2
I5
sg3
I1
sg4
I3
sg11
I4
sg5
I3
sg7
I1
sg8
I2
sg9
I7
ssI222800
(dp587
g2
I3
sg9
I3
ssI60900
(dp588
g2
I23
sg3
I56
sg4
I58
sg11
I20
sg5
I47
sg6
I19
sg7
I37
sg8
I38
sg9
I64
ssI251200
(dp589
g2
I3
sg9
I4
sg5
I1
sg4
I2
ssI833000
(dp590
g2
I183
sg3
I31
sg4
I70
sg11
I147
sg5
I53
sg6
I18
sg7
I100
sg8
I395
sg9
I234
sg40
I1
ssI120300
(dp591
g2
I13
sg4
I1
sg11
I1
sg5
I3
sg6
I1
sg7
I3
sg8
I20
sg9
I15
ssI841200
(dp592
g2
I26
sg3
I1
sg4
I7
sg11
I6
sg5
I2
sg7
I1
sg8
I9
sg9
I26
ssI63400
(dp593
g2
I59
sg3
I20
sg4
I29
sg11
I14
sg5
I14
sg6
I8
sg7
I41
sg8
I41
sg9
I90
ssI640500
(dp594
g2
I2
sg9
I2
sg6
I1
sg5
I1
ssI580600
(dp595
g2
I5
sg4
I1
sg5
I1
sg6
I1
sg7
I1
sg8
I7
sg9
I15
ssI30200
(dp596
g2
I33
sg3
I9
sg4
I19
sg11
I10
sg5
I8
sg6
I2
sg7
I14
sg8
I34
sg9
I53
sg40
I1
ssI81401
(dp597
g2
I88
sg3
I12
sg4
I74
sg11
I16
sg5
I25
sg6
I61
sg7
I21
sg8
I439
sg9
I90
ssI81402
(dp598
g2
I73
sg3
I33
sg4
I63
sg11
I77
sg5
I49
sg6
I15
sg7
I35
sg8
I102
sg9
I58
sg40
I2
ssI81403
(dp599
g2
I133
sg3
I38
sg4
I167
sg11
I70
sg5
I95
sg6
I55
sg7
I56
sg8
I393
sg9
I145
sg40
I2
ssI140800
(dp600
g2
I38
sg3
I3
sg4
I8
sg11
I5
sg5
I9
sg7
I8
sg8
I25
sg9
I39
ssI661000
(dp601
g2
I8
sg4
I1
sg5
I1
sg7
I1
sg8
I4
sg9
I7
ssI221100
(dp602
g2
I7
sg3
I5
sg4
I11
sg11
I4
sg5
I4
sg6
I1
sg7
I4
sg8
I13
sg9
I18
ssI690500
(dp603
g2
I2
sg9
I8
sg7
I1
sg4
I1
ssI50700
(dp604
g2
I7
sg3
I3
sg4
I6
sg11
I3
sg5
I4
sg7
I6
sg8
I6
sg9
I5
ssI460301
(dp605
g2
I1
sg8
I1
sg4
I2
sg9
I1
ssI460302
(dp606
g2
I3
sg8
I1
sg9
I3
sg6
I1
ssI310800
(dp607
g2
I38
sg3
I1
sg4
I6
sg11
I8
sg5
I2
sg6
I2
sg7
I5
sg8
I19
sg9
I40
ssI110100
(dp608
g2
I17
sg3
I1
sg4
I5
sg11
I2
sg5
I5
sg6
I1
sg7
I6
sg8
I12
sg9
I15
ssI440800
(dp609
g8
I3
sg9
I6
sg4
I1
ssI260900
(dp610
g2
I3
sg8
I1
sg9
I1
sg7
I1
ssI831000
(dp611
g2
I17
sg3
I9
sg4
I24
sg11
I8
sg5
I17
sg6
I9
sg7
I16
sg8
I30
sg9
I65
ssI240900
(dp612
g2
I15
sg3
I1
sg4
I10
sg11
I11
sg5
I12
sg6
I1
sg7
I6
sg8
I17
sg9
I7
ssI835100
(dp613
g2
I3
sg8
I4
sg9
I14
sg5
I3
sg4
I1
ssI220701
(dp614
g2
I13
sg3
I2
sg11
I1
sg5
I1
sg7
I2
sg8
I9
sg9
I14
ssI220702
(dp615
g2
I9
sg4
I8
sg11
I1
sg5
I1
sg8
I8
sg9
I15
ssI839200
(dp616
g3
I5
sg4
I5
sg5
I9
sg6
I6
sg8
I24
sg9
I3
ssI71600
(dp617
g3
I2
sg4
I1
sg11
I1
sg5
I3
sg6
I1
sg7
I1
sg8
I4
sg9
I3
ssI280100
(dp618
g2
I175
sg3
I67
sg4
I187
sg11
I38
sg5
I38
sg6
I27
sg7
I63
sg8
I440
sg9
I144
ssI191000
(dp619
g2
I7
sg8
I1
sg9
I10
sg11
I1
ssI30300
(dp620
g2
I5
sg3
I1
sg4
I5
sg11
I4
sg5
I4
sg7
I5
sg8
I10
sg9
I18
ssI390700
(dp621
g2
I4
sg3
I16
sg4
I22
sg11
I3
sg5
I10
sg8
I13
sg9
I9
ssI241200
(dp622
g2
I9
sg3
I7
sg4
I9
sg11
I11
sg5
I5
sg6
I6
sg7
I11
sg8
I44
sg9
I15
ssI300600
(dp623
g2
I5
sg4
I3
sg11
I1
sg5
I1
sg7
I1
sg8
I5
sg9
I6
ssI611900
(dp624
g2
I1
sg8
I4
sg5
I1
sg9
I4
ssI411200
(dp625
g2
I9
sg3
I1
sg4
I4
sg11
I6
sg5
I4
sg6
I17
sg7
I3
sg8
I9
sg9
I7
ssI620100
(dp626
g2
I21
sg4
I4
sg5
I2
sg7
I1
sg8
I5
sg9
I28
ssI210501
(dp627
g2
I20
sg4
I10
sg11
I4
sg5
I1
sg6
I3
sg7
I3
sg8
I14
sg9
I21
ssI210502
(dp628
g2
I6
sg3
I1
sg4
I1
sg7
I1
sg8
I4
sg9
I8
ssI61000
(dp629
g2
I14
sg3
I38
sg4
I17
sg11
I30
sg5
I16
sg6
I6
sg7
I30
sg8
I33
sg9
I22
sg40
I1
ssI833100
(dp630
g2
I69
sg3
I35
sg4
I53
sg11
I37
sg5
I54
sg6
I37
sg7
I34
sg8
I241
sg9
I144
ssI120400
(dp631
g2
I8
sg4
I5
sg11
I2
sg5
I5
sg7
I4
sg8
I13
sg9
I18
ssI834700
(dp632
g9
I1
ssI841300
(dp633
g2
I18
sg4
I8
sg11
I2
sg5
I3
sg6
I4
sg7
I3
sg8
I20
sg9
I28
ssI640600
(dp634
g2
I2
sg8
I1
sg9
I7
sg7
I2
sg4
I1
ssI320100
(dp635
g2
I283
sg3
I78
sg4
I361
sg11
I181
sg5
I178
sg6
I144
sg7
I111
sg8
I1292
sg9
I417
sg40
I3
ssI81500
(dp636
g2
I208
sg3
I45
sg4
I176
sg11
I63
sg5
I88
sg6
I45
sg7
I73
sg8
I545
sg9
I275
ssI381200
(dp637
g2
I9
sg3
I1
sg4
I4
sg11
I3
sg5
I1
sg6
I1
sg7
I3
sg8
I6
sg9
I12
ssI243300
(dp638
g2
I14
sg3
I14
sg4
I13
sg11
I6
sg5
I9
sg6
I7
sg7
I13
sg8
I42
sg9
I35
sg40
I2
ssI570300
(dp639
g2
I28
sg3
I1
sg4
I6
sg5
I1
sg6
I1
sg7
I5
sg8
I7
sg9
I25
ssI251500
(dp640
g2
I3
sg3
I1
sg4
I2
sg5
I2
sg6
I1
sg7
I1
sg8
I4
sg9
I2
ssI50800
(dp641
g2
I12
sg3
I2
sg4
I5
sg11
I3
sg5
I2
sg6
I3
sg7
I3
sg8
I10
sg9
I19
ssI580200
(dp642
g2
I6
sg4
I3
sg11
I4
sg5
I2
sg8
I4
sg9
I2
ssI710100
(dp643
g2
I5
sg3
I1
sg9
I1
sg8
I3
ssI720500
(dp644
g2
I5
sg4
I1
sg11
I2
sg5
I5
sg6
I2
sg7
I12
sg8
I10
sg9
I10
ssI110200
(dp645
g2
I21
sg4
I6
sg11
I4
sg5
I3
sg6
I2
sg7
I6
sg8
I16
sg9
I33
ssI63100
(dp646
g2
I44
sg3
I34
sg4
I23
sg11
I16
sg5
I13
sg6
I6
sg7
I21
sg8
I33
sg9
I62
ssI580400
(dp647
g2
I19
sg4
I4
sg11
I6
sg5
I2
sg7
I4
sg8
I9
sg9
I24
ssI835200
(dp648
g2
I11
sg4
I51
sg11
I1
sg5
I2
sg7
I5
sg8
I22
sg9
I21
ssI420800
(dp649
g2
I6
sg4
I1
sg5
I1
sg7
I1
sg8
I9
sg9
I10
ssI292200
(dp650
g2
I1
sg8
I1
sg9
I1
ssI20100
(dp651
g2
I13
sg3
I1
sg4
I5
sg11
I2
sg5
I2
sg6
I1
sg7
I4
sg8
I6
sg9
I11
ssI63000
(dp652
g2
I60
sg3
I35
sg4
I59
sg11
I24
sg5
I25
sg6
I9
sg7
I48
sg8
I129
sg9
I95
ssI190401
(dp653
g2
I6
sg3
I1
sg4
I2
sg6
I1
sg7
I1
sg8
I8
sg9
I15
ssI843400
(dp654
g2
I6
sg8
I2
sg9
I9
sg5
I1
sg4
I1
ssI430700
(dp655
g2
I4
sg3
I1
sg4
I3
sg11
I1
sg7
I3
sg8
I3
sg9
I10
ssI440600
(dp656
g2
I5
sg4
I2
sg11
I1
sg5
I2
sg8
I3
sg9
I3
ssI190100
(dp657
g2
I16
sg4
I5
sg6
I1
sg7
I2
sg8
I14
sg9
I20
ssI711200
(dp658
g2
I4
sg4
I2
sg11
I1
sg7
I1
sg8
I6
sg9
I5
ssI40600
(dp659
g2
I51
sg3
I6
sg4
I22
sg11
I15
sg5
I19
sg6
I3
sg7
I15
sg8
I33
sg9
I86
sg40
I1
ssI271300
(dp660
g2
I2
sg3
I1
sg4
I3
sg11
I2
sg5
I2
sg7
I1
sg8
I3
sg9
I1
ssI710300
(dp661
g2
I3
sg8
I6
sg4
I1
sg9
I2
ssI620300
(dp662
g2
I11
sg4
I4
sg11
I1
sg5
I3
sg6
I1
sg7
I2
sg8
I9
sg9
I21
ssI560800
(dp663
g2
I20
sg4
I12
sg5
I1
sg7
I4
sg8
I13
sg9
I22
ssI460400
(dp664
g2
I3
sg4
I2
sg11
I1
sg5
I1
sg7
I2
sg8
I1
ssI430200
(dp665
g8
I3
sg4
I7
sg5
I2
sg9
I8
ssI620200
(dp666
g2
I8
sg3
I1
sg4
I9
sg5
I1
sg8
I10
sg9
I23
ssI210601
(dp667
g2
I12
sg3
I1
sg4
I8
sg11
I3
sg5
I2
sg6
I1
sg7
I6
sg8
I7
sg9
I8
ssI210602
(dp668
g2
I16
sg3
I3
sg4
I11
sg11
I7
sg5
I2
sg7
I10
sg8
I17
sg9
I26
ssI61100
(dp669
g2
I19
sg3
I20
sg4
I25
sg11
I44
sg5
I58
sg6
I4
sg7
I45
sg8
I18
sg9
I13
ssI81900
(dp670
g2
I4
sg3
I5
sg4
I5
sg11
I1
sg5
I3
sg6
I2
sg7
I3
sg8
I9
sg9
I5
ssI222900
(dp671
g2
I3
sg3
I1
sg4
I1
sg11
I2
sg5
I1
sg6
I1
sg7
I2
sg9
I2
ssI841400
(dp672
g2
I1
sg3
I1
sg9
I1
ssI310900
(dp673
g2
I30
sg4
I7
sg11
I9
sg5
I9
sg6
I2
sg7
I10
sg8
I11
sg9
I17
ssI640700
(dp674
g2
I10
sg4
I5
sg11
I1
sg7
I3
sg8
I2
sg9
I1
ssI81600
(dp675
g2
I67
sg3
I23
sg4
I64
sg11
I31
sg5
I20
sg6
I23
sg7
I49
sg8
I114
sg9
I82
ssI681400
(dp676
g2
I2
sg8
I4
sg9
I3
ssI700100
(dp677
g2
I8
sg3
I1
sg4
I6
sg11
I2
sg5
I1
sg8
I6
sg9
I6
ssI243400
(dp678
g2
I25
sg3
I10
sg4
I15
sg11
I11
sg5
I8
sg6
I2
sg7
I33
sg8
I26
sg9
I26
ssI740300
(dp679
g2
I13
sg4
I2
sg5
I2
sg6
I1
sg7
I3
sg8
I8
sg9
I8
ssI251600
(dp680
g2
I3
sg11
I1
sg5
I1
sg6
I1
sg8
I5
sg9
I2
ssI750200
(dp681
g2
I4
sg4
I3
sg11
I1
sg5
I3
sg7
I1
sg8
I10
sg9
I12
ssI200402
(dp682
g2
I4
sg4
I2
sg11
I1
sg7
I3
sg8
I7
sg9
I6
ssI611500
(dp683
g2
I2
sg3
I1
sg4
I1
sg5
I1
sg6
I1
sg8
I3
sg9
I4
ssI50900
(dp684
g2
I10
sg3
I6
sg4
I8
sg11
I2
sg5
I2
sg6
I2
sg7
I5
sg8
I9
sg9
I30
ssI720600
(dp685
g2
I7
sg11
I2
sg5
I2
sg6
I1
sg7
I1
sg8
I7
sg9
I8
ssI120100
(dp686
g2
I7
sg3
I1
sg4
I4
sg11
I2
sg5
I7
sg6
I1
sg7
I1
sg8
I12
sg9
I10
ssI110300
(dp687
g2
I5
sg4
I12
sg5
I2
sg6
I1
sg8
I5
sg9
I15
ssI63200
(dp688
g2
I17
sg3
I63
sg4
I106
sg11
I17
sg5
I40
sg6
I6
sg7
I25
sg8
I27
sg9
I37
ssI630500
(dp689
g2
I14
sg8
I4
sg9
I7
sg4
I2
sg11
I2
ssI220901
(dp690
g2
I3
sg8
I5
sg9
I7
sg11
I1
ssI220902
(dp691
g2
I13
sg4
I7
sg11
I5
sg5
I2
sg6
I2
sg7
I1
sg8
I9
sg9
I13
ssI71400
(dp692
g2
I55
sg3
I34
sg4
I42
sg11
I42
sg5
I51
sg6
I13
sg7
I25
sg8
I47
sg9
I53
ssI191100
(dp693
g2
I13
sg4
I3
sg11
I2
sg5
I2
sg7
I2
sg8
I10
sg9
I24
ssI843500
(dp694
g2
I16
sg3
I1
sg4
I9
sg11
I3
sg5
I2
sg6
I2
sg7
I2
sg8
I26
sg9
I13
ssI431400
(dp695
g8
I3
sg5
I3
sg9
I1
sg7
I2
sg3
I3
ssI560900
(dp696
g2
I20
sg4
I2
sg11
I3
sg5
I1
sg6
I1
sg7
I5
sg8
I20
sg9
I31
ssI241400
(dp697
g2
I108
sg3
I20
sg4
I45
sg11
I44
sg5
I27
sg6
I9
sg7
I71
sg8
I62
sg9
I154
ssI390100
(dp698
g2
I9
sg3
I1
sg4
I2
sg5
I4
sg6
I1
sg8
I7
sg9
I15
ssI40700
(dp699
g2
I36
sg3
I7
sg4
I11
sg11
I7
sg5
I4
sg6
I2
sg7
I12
sg8
I28
sg9
I46
ssI710400
(dp700
g2
I6
sg8
I3
sg4
I2
sg9
I3
ssI630400
(dp701
g2
I12
sg8
I2
sg9
I10
sg7
I2
sg4
I2
ssI100100
(dp702
g2
I23
sg3
I1
sg4
I6
sg11
I1
sg5
I5
sg6
I3
sg7
I11
sg8
I25
sg9
I28
ssI491000
(dp703
g2
I1
sg9
I1
ssI360200
(dp704
g8
I4
sg5
I1
ssI691500
(dp705
g2
I5
sg11
I1
sg5
I2
sg6
I1
sg7
I5
sg8
I17
sg9
I7
ssI210700
(dp706
g2
I12
sg3
I4
sg4
I15
sg11
I7
sg5
I8
sg6
I1
sg7
I10
sg8
I13
sg9
I22
ssI61200
(dp707
g2
I19
sg3
I13
sg4
I12
sg11
I9
sg5
I9
sg6
I3
sg7
I13
sg8
I16
sg9
I25
ssI650200
(dp708
g2
I10
sg4
I5
sg6
I1
sg7
I2
sg8
I14
sg9
I16
ssI833300
(dp709
g2
I41
sg3
I22
sg4
I14
sg11
I11
sg5
I9
sg6
I29
sg7
I10
sg8
I26
sg9
I25
ssI530200
(dp710
g2
I6
sg8
I3
sg9
I7
sg4
I1
ssI711300
(dp711
g2
I5
sg8
I1
sg9
I6
sg7
I3
ssI681200
(dp712
g2
I1
sg8
I3
sg9
I1
sg4
I1
ssI380700
(dp713
g2
I4
sg8
I5
sg9
I2
sg4
I1
sg7
I1
ssI231200
(dp714
g2
I2
sg8
I1
sg4
I6
sg9
I3
ssI81700
(dp715
g2
I176
sg3
I48
sg4
I155
sg11
I70
sg5
I41
sg6
I39
sg7
I115
sg8
I448
sg9
I185
sg40
I1
ssI440101
(dp716
g2
I12
sg3
I2
sg4
I1
sg11
I2
sg5
I1
sg8
I7
sg9
I14
ssI440102
(dp717
g2
I13
sg11
I2
sg5
I1
sg7
I1
sg8
I17
sg9
I21
ssI700200
(dp718
g2
I11
sg3
I1
sg4
I5
sg11
I2
sg7
I2
sg8
I6
sg9
I13
ssI243500
(dp719
g2
I51
sg3
I34
sg4
I68
sg11
I40
sg5
I23
sg6
I19
sg7
I43
sg8
I140
sg9
I83
ssI170200
(dp720
g2
I5
sg4
I4
sg11
I2
sg5
I3
sg7
I1
sg8
I4
sg9
I7
ssI251700
(dp721
g2
I1
sg8
I1
sg4
I2
sg9
I2
sg7
I2
ssI51000
(dp722
g2
I8
sg3
I4
sg4
I6
sg11
I2
sg5
I8
sg6
I1
sg7
I10
sg8
I13
sg9
I28
ssI720700
(dp723
g2
I5
sg4
I1
sg11
I3
sg5
I2
sg7
I1
sg8
I6
sg9
I8
ssI110400
(dp724
g2
I4
sg3
I1
sg4
I14
sg7
I2
sg8
I13
sg9
I8
ssI660400
(dp725
g2
I3
sg11
I2
sg5
I1
sg6
I1
sg7
I2
sg8
I2
sg9
I5
ssI831300
(dp726
g2
I8
sg9
I16
sg6
I1
sg4
I5
sg7
I2
ssI63301
(dp727
g2
I36
sg3
I30
sg4
I14
sg11
I5
sg5
I14
sg6
I3
sg7
I15
sg8
I18
sg9
I30
ssI63302
(dp728
g2
I6
sg3
I49
sg4
I23
sg11
I6
sg5
I20
sg6
I11
sg7
I15
sg8
I59
sg9
I18
ssI63303
(dp729
g2
I4
sg3
I4
sg4
I16
sg11
I3
sg5
I18
sg6
I2
sg7
I3
sg8
I19
ssI221000
(dp730
g2
I9
sg3
I2
sg4
I3
sg11
I3
sg7
I7
sg8
I2
sg9
I5
ssI838800
(dp731
g2
I5
sg4
I3
sg5
I6
sg7
I2
sg8
I11
sg9
I3
ssI71500
(dp732
g2
I57
sg3
I39
sg4
I78
sg11
I54
sg5
I107
sg6
I16
sg7
I46
sg8
I70
sg9
I63
ssI20301
(dp733
g2
I3
sg4
I1
sg5
I1
sg6
I1
sg8
I6
sg9
I3
ssI20302
(dp734
g2
I7
sg3
I4
sg4
I6
sg5
I5
sg6
I1
sg7
I3
sg8
I3
sg9
I11
ssI280400
(dp735
g2
I10
sg4
I8
sg11
I5
sg5
I5
sg7
I8
sg8
I32
sg9
I15
ssI550200
(dp736
g2
I2
sg3
I1
sg4
I1
sg5
I4
sg7
I2
sg8
I2
sg9
I2
ssI837300
(dp737
g8
I3
sg9
I3
sg5
I1
sg4
I1
ssI230700
(dp738
g2
I7
sg8
I8
sg9
I12
sg4
I3
ssI560100
(dp739
g2
I1
sg4
I16
sg5
I1
sg7
I1
sg8
I2
sg9
I1
ssI190300
(dp740
g2
I34
sg4
I7
sg11
I3
sg5
I1
sg7
I6
sg8
I11
sg9
I30
ssI40800
(dp741
g2
I4
sg3
I2
sg4
I1
sg11
I3
sg5
I1
sg6
I1
sg7
I1
sg8
I8
sg9
I9
ssI300900
(dp742
g2
I13
sg4
I2
sg5
I1
sg6
I1
sg7
I2
sg8
I4
sg9
I9
ssI100200
(dp743
g2
I17
sg3
I2
sg4
I6
sg11
I4
sg5
I9
sg6
I2
sg7
I5
sg8
I19
sg9
I47
ssI221500
(dp744
g2
I20
sg3
I4
sg4
I13
sg11
I8
sg5
I5
sg6
I5
sg7
I12
sg8
I18
sg9
I27
ssI620400
(dp745
g2
I5
sg8
I5
sg9
I5
sg4
I4
ssI10100
(dp746
g2
I11
sg3
I12
sg4
I4
sg11
I3
sg5
I13
sg6
I3
sg7
I4
sg8
I13
sg9
I13
ssI241300
(dp747
g2
I12
sg3
I1
sg4
I4
sg11
I5
sg5
I3
sg6
I1
sg7
I5
sg8
I8
sg9
I15
ssI530300
(dp748
g2
I2
sg4
I5
sg11
I1
sg5
I1
sg6
I1
sg7
I1
sg8
I2
sg9
I7
ssI560700
(dp749
g2
I7
sg4
I1
sg11
I1
sg5
I3
sg7
I2
sg8
I5
sg9
I15
ssI841600
(dp750
g8
I1
sg4
I1
ssI430400
(dp751
g2
I10
sg3
I1
sg4
I1
sg11
I2
sg7
I1
sg8
I3
sg9
I12
ssI180100
(dp752
g2
I6
sg3
I1
sg4
I3
sg11
I2
sg5
I1
sg7
I2
sg8
I9
sg9
I9
ssI491400
(dp753
g2
I8
sg4
I4
sg5
I3
sg6
I1
sg7
I2
sg8
I10
sg9
I15
ssI440201
(dp754
g2
I12
sg3
I2
sg4
I4
sg6
I1
sg7
I5
sg8
I7
sg9
I16
ssI440202
(dp755
g2
I13
sg3
I1
sg4
I2
sg5
I1
sg7
I4
sg8
I14
sg9
I36
ssI30603
(dp756
g2
I19
sg3
I21
sg4
I9
sg11
I2
sg5
I3
sg6
I2
sg7
I3
sg8
I13
sg9
I31
ssI30604
(dp757
g2
I3
sg3
I19
sg4
I7
sg11
I4
sg5
I17
sg6
I2
sg7
I1
sg8
I14
sg9
I6
ssI700301
(dp758
g2
I10
sg4
I1
sg5
I1
sg6
I1
sg7
I1
sg8
I4
sg9
I28
ssI700302
(dp759
g2
I2
sg4
I3
sg11
I3
sg5
I2
sg7
I3
sg8
I6
sg9
I8
ssI680600
(dp760
g2
I2
sg9
I1
sg11
I1
ssI350100
(dp761
g2
I1
sg3
I8
sg4
I5
sg11
I1
sg5
I6
sg6
I1
sg7
I1
sg8
I2
sg9
I3
ssI251800
(dp762
g2
I14
sg3
I1
sg4
I7
sg11
I1
sg5
I1
sg6
I2
sg7
I2
sg8
I14
sg9
I17
ssI460100
(dp763
g2
I4
sg4
I4
sg11
I1
sg7
I2
sg8
I12
sg9
I2
ssI460700
(dp764
g2
I12
sg3
I1
sg11
I1
sg5
I1
sg8
I6
sg9
I7
ssI491100
(dp765
g2
I2
sg8
I4
sg4
I1
sg9
I10
ssI520100
(dp766
g2
I2
sg4
I1
sg11
I1
sg5
I1
sg7
I1
sg8
I2
sg9
I6
ssI110501
(dp767
g2
I3
sg4
I4
sg11
I2
sg5
I1
sg7
I2
sg8
I11
sg9
I18
ssI110502
(dp768
g2
I20
sg3
I6
sg4
I32
sg11
I11
sg5
I8
sg6
I1
sg7
I7
sg8
I37
sg9
I38
ssI831400
(dp769
g2
I18
sg4
I10
sg11
I3
sg5
I2
sg6
I1
sg7
I1
sg8
I16
sg9
I23
ssI838300
(dp770
g2
I19
sg3
I6
sg4
I14
sg11
I4
sg5
I5
sg6
I7
sg7
I4
sg8
I40
sg9
I15
ssI835500
(dp771
g2
I5
sg3
I1
sg4
I11
sg5
I5
sg6
I1
sg7
I4
sg8
I10
sg9
I3
ssI30706
(dp772
g2
I8
sg3
I14
sg4
I30
sg11
I2
sg5
I10
sg6
I4
sg7
I1
sg8
I13
sg9
I15
ssI839600
(dp773
g2
I11
sg3
I1
sg4
I1
sg11
I5
sg5
I1
sg6
I2
sg7
I1
sg8
I16
sg9
I11
ssI720200
(dp774
g2
I8
sg4
I2
sg11
I2
sg5
I3
sg8
I3
sg9
I17
ssI843700
(dp775
g2
I30
sg3
I8
sg4
I31
sg11
I12
sg5
I25
sg6
I16
sg7
I18
sg8
I52
sg9
I57
ssI730100
(dp776
g2
I1
sg8
I2
sg9
I1
ssI241600
(dp777
g2
I18
sg3
I12
sg4
I25
sg11
I13
sg5
I18
sg6
I5
sg7
I29
sg8
I20
sg9
I47
sg40
I1
ssI151200
(dp778
g2
I10
sg4
I3
sg11
I1
sg5
I1
sg6
I4
sg7
I3
sg8
I10
sg9
I25
ssI190402
(dp779
g2
I21
sg4
I4
sg5
I3
sg6
I1
sg7
I4
sg8
I16
sg9
I24
ssI40900
(dp780
g2
I22
sg3
I4
sg4
I17
sg11
I7
sg5
I9
sg6
I7
sg7
I13
sg8
I21
sg9
I35
ssI710600
(dp781
g2
I6
sg9
I3
sg4
I2
ssI840100
(dp782
g2
I6
sg3
I1
sg11
I2
sg5
I2
sg8
I9
sg9
I8
ssI100300
(dp783
g2
I1
sg3
I2
sg4
I1
sg11
I1
sg5
I3
sg6
I1
sg7
I2
sg8
I10
sg9
I4
ssI480300
(dp784
g2
I1
sg8
I6
sg4
I2
sg9
I4
sg7
I2
ssI836600
(dp785
g2
I10
sg3
I5
sg4
I4
sg11
I4
sg5
I2
sg7
I1
sg8
I7
sg9
I32
ssI210900
(dp786
g2
I18
sg3
I4
sg4
I12
sg11
I11
sg5
I4
sg6
I1
sg7
I11
sg8
I20
sg9
I36
ssI10201
(dp787
g2
I16
sg3
I5
sg4
I3
sg11
I1
sg5
I5
sg7
I1
sg8
I6
sg9
I10
ssI10202
(dp788
g2
I31
sg3
I6
sg4
I17
sg5
I6
sg6
I5
sg7
I3
sg8
I20
sg9
I53
ssI530400
(dp789
g8
I5
sg4
I4
sg9
I5
ssI242000
(dp790
g2
I50
sg3
I22
sg4
I25
sg11
I35
sg5
I12
sg6
I8
sg7
I34
sg8
I61
sg9
I69
ssI841700
(dp791
g2
I2
sg3
I2
sg4
I2
sg11
I1
sg7
I1
sg8
I2
sg9
I5
ssI251900
(dp792
g2
I8
sg3
I1
sg4
I1
sg11
I1
sg5
I1
sg7
I3
sg8
I3
sg9
I13
sg40
I1
ssI440300
(dp793
g2
I14
sg4
I2
sg5
I1
sg6
I1
sg7
I1
sg8
I13
sg9
I18
ssI30701
(dp794
g2
I12
sg3
I9
sg4
I15
sg11
I8
sg5
I4
sg6
I1
sg7
I10
sg8
I24
sg9
I16
ssI30702
(dp795
g8
I2
sg9
I2
sg6
I1
sg4
I3
sg3
I2
ssI30703
(dp796
g2
I15
sg3
I20
sg4
I19
sg11
I7
sg5
I5
sg6
I2
sg7
I5
sg8
I18
sg9
I41
ssI700401
(dp797
g2
I8
sg4
I3
sg5
I2
sg7
I2
sg8
I6
sg9
I11
ssI700402
(dp798
g2
I17
sg4
I3
sg11
I1
sg6
I1
sg7
I5
sg8
I5
sg9
I14
ssI90100
(dp799
g2
I8
sg4
I2
sg5
I1
sg6
I1
sg7
I1
sg8
I5
sg9
I16
ssI630100
(dp800
g2
I1
sg4
I1
sg5
I1
sg6
I1
sg8
I6
sg9
I1
ssI610300
(dp801
g2
I24
sg4
I2
sg11
I1
sg5
I5
sg7
I3
sg8
I11
sg9
I24
ssI835800
(dp802
g2
I6
sg4
I1
sg6
I1
sg7
I5
sg8
I3
sg9
I5
ss.